Component: Arm Compiler for Embedded 6.19 Tool: armlink [5e73cb00]

==============================================================================

Section Cross References

    main.o(.text.main) refers to watchdog.o(.text.watchdog_config) for watchdog_config
    main.o(.text.main) refers to patch.o(_section_xip_code_) for init_config
    main.o(.text.main) refers to patch.o(i.ll_patch_slave) for ll_patch_slave
    main.o(.text.main) refers to clock.o(.text.hal_rc32k_clk_tracking_init) for hal_rc32k_clk_tracking_init
    main.o(.text.main) refers to patch.o(i.hal_rom_boot_init) for hal_rom_boot_init
    main.o(.text.main) refers to gpio.o(.text.hal_gpio_pull_set) for hal_gpio_pull_set
    main.o(.text.main) refers to pwrmgr.o(.text.hal_pwrmgr_RAM_retention) for hal_pwrmgr_RAM_retention
    main.o(.text.main) refers to pwrmgr.o(.text.hal_pwrmgr_RAM_retention_set) for hal_pwrmgr_RAM_retention_set
    main.o(.text.main) refers to clock.o(.text.hal_rtc_clock_config) for hal_rtc_clock_config
    main.o(.text.main) refers to pwrmgr.o(.text.hal_pwrmgr_init) for hal_pwrmgr_init
    main.o(.text.main) refers to flash.o(.text.hal_spif_cache_init) for hal_spif_cache_init
    main.o(.text.main) refers to gpio.o(.text.hal_gpio_init) for hal_gpio_init
    main.o(.text.main) refers to pwm.o(.text.hal_pwm_module_init) for hal_pwm_module_init
    main.o(.text.main) refers to fs.o(.text.hal_fs_init) for hal_fs_init
    main.o(.text.main) refers to findmy_main.o(.text.app_main) for app_main
    main.o(.text.main) refers to main.o(.bss.g_clk32K_config) for g_clk32K_config
    main.o(.text.main) refers to main.o(.bss.g_largeHeap) for g_largeHeap
    main.o(.text.main) refers to main.o(.bss.pConnContext) for pConnContext
    main.o(.text.main) refers to main.o(.bss.g_pConnectionBuffer) for g_pConnectionBuffer
    main.o(.ARM.exidx.text.main) refers to main.o(.text.main) for [Anonymous Symbol]
    uart.o(_section_sram_code_) refers to pwrmgr.o(.text.hal_pwrmgr_unlock) for hal_pwrmgr_unlock
    uart.o(_section_sram_code_) refers to uart.o(.bss.m_uartCtx) for [Anonymous Symbol]
    uart.o(_section_sram_code_) refers to uart.o(.rodata..L__const.irq_tx_empty_handler.evt) for [Anonymous Symbol]
    uart.o(.ARM.exidx_section_sram_code_) refers to uart.o(_section_sram_code_) for [Anonymous Symbol]
    uart.o(_section_sram_code_) refers to pwrmgr.o(.text.hal_pwrmgr_unlock) for hal_pwrmgr_unlock
    uart.o(_section_sram_code_) refers to uart.o(.bss.m_uartCtx) for [Anonymous Symbol]
    uart.o(_section_sram_code_) refers to uart.o(.rodata..L__const.irq_tx_empty_handler.evt) for [Anonymous Symbol]
    uart.o(.ARM.exidx_section_sram_code_) refers to uart.o(_section_sram_code_) for [Anonymous Symbol]
    uart.o(.text.hal_uart_init) refers to uart.o(.text.uart_hw_init) for uart_hw_init
    uart.o(.text.hal_uart_init) refers to pwrmgr.o(.text.hal_pwrmgr_register) for hal_pwrmgr_register
    uart.o(.text.hal_uart_init) refers to uart.o(.bss.m_uartCtx) for [Anonymous Symbol]
    uart.o(.text.hal_uart_init) refers to uart.o(.text.uart_wakeup_process_1) for uart_wakeup_process_1
    uart.o(.text.hal_uart_init) refers to uart.o(.text.uart_wakeup_process_0) for uart_wakeup_process_0
    uart.o(.ARM.exidx.text.hal_uart_init) refers to uart.o(.text.hal_uart_init) for [Anonymous Symbol]
    uart.o(.text.uart_hw_init) refers to gpio.o(.text.hal_gpio_fmux) for hal_gpio_fmux
    uart.o(.text.uart_hw_init) refers to clock.o(.text.hal_clk_reset) for hal_clk_reset
    uart.o(.text.uart_hw_init) refers to clock.o(.text.hal_clk_gate_disable) for hal_clk_gate_disable
    uart.o(.text.uart_hw_init) refers to clock.o(.text.hal_clk_gate_enable) for hal_clk_gate_enable
    uart.o(.text.uart_hw_init) refers to gpio.o(.text.hal_gpio_pull_set) for hal_gpio_pull_set
    uart.o(.text.uart_hw_init) refers to gpio.o(.text.hal_gpio_fmux_set) for hal_gpio_fmux_set
    uart.o(.text.uart_hw_init) refers to uart.o(.bss.m_uartCtx) for [Anonymous Symbol]
    uart.o(.text.uart_hw_init) refers to uart.o(_section_sram_code_) for hal_UART1_IRQHandler
    uart.o(.text.uart_hw_init) refers to uart.o(_section_sram_code_) for hal_UART0_IRQHandler
    uart.o(.ARM.exidx.text.uart_hw_init) refers to uart.o(.text.uart_hw_init) for [Anonymous Symbol]
    uart.o(.text.uart_wakeup_process_0) refers to uart.o(.text.uart_hw_init) for uart_hw_init
    uart.o(.ARM.exidx.text.uart_wakeup_process_0) refers to uart.o(.text.uart_wakeup_process_0) for [Anonymous Symbol]
    uart.o(.text.uart_wakeup_process_1) refers to uart.o(.text.uart_hw_init) for uart_hw_init
    uart.o(.ARM.exidx.text.uart_wakeup_process_1) refers to uart.o(.text.uart_wakeup_process_1) for [Anonymous Symbol]
    uart.o(.text.hal_uart_deinit) refers to gpio.o(.text.hal_gpio_fmux) for hal_gpio_fmux
    uart.o(.text.hal_uart_deinit) refers to clock.o(.text.hal_clk_reset) for hal_clk_reset
    uart.o(.text.hal_uart_deinit) refers to clock.o(.text.hal_clk_gate_disable) for hal_clk_gate_disable
    uart.o(.text.hal_uart_deinit) refers to pwrmgr.o(.text.hal_pwrmgr_unregister) for hal_pwrmgr_unregister
    uart.o(.text.hal_uart_deinit) refers to uart.o(.bss.m_uartCtx) for [Anonymous Symbol]
    uart.o(.ARM.exidx.text.hal_uart_deinit) refers to uart.o(.text.hal_uart_deinit) for [Anonymous Symbol]
    uart.o(.text.hal_uart_set_tx_buf) refers to uart.o(.bss.m_uartCtx) for [Anonymous Symbol]
    uart.o(.ARM.exidx.text.hal_uart_set_tx_buf) refers to uart.o(.text.hal_uart_set_tx_buf) for [Anonymous Symbol]
    uart.o(.text.hal_uart_get_tx_ready) refers to uart.o(.bss.m_uartCtx) for [Anonymous Symbol]
    uart.o(.ARM.exidx.text.hal_uart_get_tx_ready) refers to uart.o(.text.hal_uart_get_tx_ready) for [Anonymous Symbol]
    uart.o(.text.hal_uart_send_buff) refers to pwrmgr.o(.text.hal_pwrmgr_lock) for hal_pwrmgr_lock
    uart.o(.text.hal_uart_send_buff) refers to uart.o(.bss.m_uartCtx) for [Anonymous Symbol]
    uart.o(.ARM.exidx.text.hal_uart_send_buff) refers to uart.o(.text.hal_uart_send_buff) for [Anonymous Symbol]
    uart.o(.ARM.exidx.text.hal_uart_send_byte) refers to uart.o(.text.hal_uart_send_byte) for [Anonymous Symbol]
    clock.o(.ARM.exidx.text.hal_clk_gate_enable) refers to clock.o(.text.hal_clk_gate_enable) for [Anonymous Symbol]
    clock.o(.ARM.exidx.text.hal_clk_gate_disable) refers to clock.o(.text.hal_clk_gate_disable) for [Anonymous Symbol]
    clock.o(.ARM.exidx.text.hal_clk_gate_get) refers to clock.o(.text.hal_clk_gate_get) for [Anonymous Symbol]
    clock.o(.ARM.exidx.text.hal_clk_get_modules_state) refers to clock.o(.text.hal_clk_get_modules_state) for [Anonymous Symbol]
    clock.o(.ARM.exidx.text.hal_clk_reset) refers to clock.o(.text.hal_clk_reset) for [Anonymous Symbol]
    clock.o(.text.hal_rtc_clock_config) refers to gpio.o(.text.hal_gpio_pull_set) for hal_gpio_pull_set
    clock.o(.ARM.exidx.text.hal_rtc_clock_config) refers to clock.o(.text.hal_rtc_clock_config) for [Anonymous Symbol]
    clock.o(.ARM.exidx.text.hal_systick) refers to clock.o(.text.hal_systick) for [Anonymous Symbol]
    clock.o(.ARM.exidx.text.hal_ms_intv) refers to clock.o(.text.hal_ms_intv) for [Anonymous Symbol]
    clock.o(.ARM.exidx.text.WaitMs) refers to clock.o(.text.WaitMs) for [Anonymous Symbol]
    clock.o(.ARM.exidx.text.WaitUs) refers to clock.o(.text.WaitUs) for [Anonymous Symbol]
    clock.o(.ARM.exidx.text.hal_system_soft_reset) refers to clock.o(.text.hal_system_soft_reset) for [Anonymous Symbol]
    clock.o(.ARM.exidx.text.hal_rc32k_clk_tracking_init) refers to clock.o(.text.hal_rc32k_clk_tracking_init) for [Anonymous Symbol]
    clock.o(.ARM.exidx_section_xip_code_) refers to clock.o(_section_xip_code_) for [Anonymous Symbol]
    gpio.o(.ARM.exidx.text.hal_gpio_write) refers to gpio.o(.text.hal_gpio_write) for [Anonymous Symbol]
    gpio.o(.text.hal_gpio_pin_init) refers to gpio.o(.bss.m_gpioCtx) for [Anonymous Symbol]
    gpio.o(.ARM.exidx.text.hal_gpio_pin_init) refers to gpio.o(.text.hal_gpio_pin_init) for [Anonymous Symbol]
    gpio.o(.ARM.exidx.text.hal_gpio_fast_write) refers to gpio.o(.text.hal_gpio_fast_write) for [Anonymous Symbol]
    gpio.o(.ARM.exidx.text.hal_gpio_read) refers to gpio.o(.text.hal_gpio_read) for [Anonymous Symbol]
    gpio.o(.ARM.exidx.text.hal_gpio_fmux) refers to gpio.o(.text.hal_gpio_fmux) for [Anonymous Symbol]
    gpio.o(.ARM.exidx.text.hal_gpio_fmux_set) refers to gpio.o(.text.hal_gpio_fmux_set) for [Anonymous Symbol]
    gpio.o(.ARM.exidx.text.hal_gpio_pin2pin3_control) refers to gpio.o(.text.hal_gpio_pin2pin3_control) for [Anonymous Symbol]
    gpio.o(.text.hal_gpio_cfg_analog_io) refers to gpio.o(.rodata.c_gpio_pull) for c_gpio_pull
    gpio.o(.ARM.exidx.text.hal_gpio_cfg_analog_io) refers to gpio.o(.text.hal_gpio_cfg_analog_io) for [Anonymous Symbol]
    gpio.o(.ARM.exidx.text.hal_gpio_ds_control) refers to gpio.o(.text.hal_gpio_ds_control) for [Anonymous Symbol]
    gpio.o(.text.hal_gpioretention_unregister) refers to gpio.o(.bss.m_gpioCtx) for [Anonymous Symbol]
    gpio.o(.ARM.exidx.text.hal_gpioretention_unregister) refers to gpio.o(.text.hal_gpioretention_unregister) for [Anonymous Symbol]
    gpio.o(.text.hal_gpioin_unregister) refers to gpio.o(.bss.m_gpioCtx) for [Anonymous Symbol]
    gpio.o(.ARM.exidx.text.hal_gpioin_unregister) refers to gpio.o(.text.hal_gpioin_unregister) for [Anonymous Symbol]
    gpio.o(.text.hal_gpioin_disable) refers to gpio.o(.bss.m_gpioCtx) for [Anonymous Symbol]
    gpio.o(.ARM.exidx.text.hal_gpioin_disable) refers to gpio.o(.text.hal_gpioin_disable) for [Anonymous Symbol]
    gpio.o(.text.hal_gpio_pull_set) refers to gpio.o(.rodata.c_gpio_pull) for c_gpio_pull
    gpio.o(.ARM.exidx.text.hal_gpio_pull_set) refers to gpio.o(.text.hal_gpio_pull_set) for [Anonymous Symbol]
    gpio.o(.text.hal_gpio_wakeup_set) refers to gpio.o(.rodata.c_gpio_pull) for c_gpio_pull
    gpio.o(.text.hal_gpio_wakeup_set) refers to gpio.o(.bss.m_gpioCtx) for [Anonymous Symbol]
    gpio.o(.text.hal_gpio_wakeup_set) refers to gpio.o(.rodata.c_gpio_index) for c_gpio_index
    gpio.o(.ARM.exidx.text.hal_gpio_wakeup_set) refers to gpio.o(.text.hal_gpio_wakeup_set) for [Anonymous Symbol]
    gpio.o(.text.hal_GPIO_IRQHandler) refers to gpio.o(.bss.m_gpioCtx) for [Anonymous Symbol]
    gpio.o(.ARM.exidx.text.hal_GPIO_IRQHandler) refers to gpio.o(.text.hal_GPIO_IRQHandler) for [Anonymous Symbol]
    gpio.o(.text.hal_gpioin_enable) refers to gpio.o(.bss.m_gpioCtx) for [Anonymous Symbol]
    gpio.o(.ARM.exidx.text.hal_gpioin_enable) refers to gpio.o(.text.hal_gpioin_enable) for [Anonymous Symbol]
    gpio.o(.text.hal_gpioretention_register) refers to gpio.o(.bss.m_gpioCtx) for [Anonymous Symbol]
    gpio.o(.ARM.exidx.text.hal_gpioretention_register) refers to gpio.o(.text.hal_gpioretention_register) for [Anonymous Symbol]
    gpio.o(.text.hal_gpioin_register) refers to gpio.o(.text.hal_gpioin_enable) for hal_gpioin_enable
    gpio.o(.text.hal_gpioin_register) refers to gpio.o(.bss.m_gpioCtx) for [Anonymous Symbol]
    gpio.o(.text.hal_gpioin_register) refers to gpio.o(.text.hal_GPIO_IRQHandler) for hal_GPIO_IRQHandler
    gpio.o(.ARM.exidx.text.hal_gpioin_register) refers to gpio.o(.text.hal_gpioin_register) for [Anonymous Symbol]
    gpio.o(.text.hal_gpio_init) refers to pwrmgr.o(.text.hal_pwrmgr_register) for hal_pwrmgr_register
    gpio.o(.text.hal_gpio_init) refers to gpio.o(.bss.m_gpioCtx) for [Anonymous Symbol]
    gpio.o(.text.hal_gpio_init) refers to gpio.o(.text.hal_gpio_sleep_handler) for hal_gpio_sleep_handler
    gpio.o(.text.hal_gpio_init) refers to gpio.o(.text.hal_gpio_wakeup_handler) for hal_gpio_wakeup_handler
    gpio.o(.ARM.exidx.text.hal_gpio_init) refers to gpio.o(.text.hal_gpio_init) for [Anonymous Symbol]
    gpio.o(.text.hal_gpio_sleep_handler) refers to gpio.o(.rodata.c_gpio_pull) for c_gpio_pull
    gpio.o(.text.hal_gpio_sleep_handler) refers to gpio.o(.rodata.retention_reg) for retention_reg
    gpio.o(.text.hal_gpio_sleep_handler) refers to gpio.o(.bss.m_gpioCtx) for [Anonymous Symbol]
    gpio.o(.text.hal_gpio_sleep_handler) refers to gpio.o(.rodata.c_gpio_index) for c_gpio_index
    gpio.o(.ARM.exidx.text.hal_gpio_sleep_handler) refers to gpio.o(.text.hal_gpio_sleep_handler) for [Anonymous Symbol]
    gpio.o(.text.hal_gpio_wakeup_handler) refers to gpio.o(.text.hal_gpioin_enable) for hal_gpioin_enable
    gpio.o(.text.hal_gpio_wakeup_handler) refers to gpio.o(.bss.m_gpioCtx) for [Anonymous Symbol]
    gpio.o(.text.hal_gpio_wakeup_handler) refers to gpio.o(.rodata.retention_reg) for retention_reg
    gpio.o(.ARM.exidx.text.hal_gpio_wakeup_handler) refers to gpio.o(.text.hal_gpio_wakeup_handler) for [Anonymous Symbol]
    gpio.o(.ARM.exidx.text.hal_gpio_debug_mux) refers to gpio.o(.text.hal_gpio_debug_mux) for [Anonymous Symbol]
    gpio.o(.text.hal_gpioin_set_flag) refers to gpio.o(.bss.m_gpioCtx) for [Anonymous Symbol]
    gpio.o(.ARM.exidx.text.hal_gpioin_set_flag) refers to gpio.o(.text.hal_gpioin_set_flag) for [Anonymous Symbol]
    timer.o(.text.hal_TIMER5_IRQHandler) refers to timer.o(.bss.s_ap_callback) for [Anonymous Symbol]
    timer.o(.ARM.exidx.text.hal_TIMER5_IRQHandler) refers to timer.o(.text.hal_TIMER5_IRQHandler) for [Anonymous Symbol]
    timer.o(.text.hal_TIMER6_IRQHandler) refers to timer.o(.bss.s_ap_callback) for [Anonymous Symbol]
    timer.o(.ARM.exidx.text.hal_TIMER6_IRQHandler) refers to timer.o(.text.hal_TIMER6_IRQHandler) for [Anonymous Symbol]
    timer.o(.text.hal_timer_sleep_handler) refers to timer.o(.bss.s_ap_callback) for [Anonymous Symbol]
    timer.o(.ARM.exidx.text.hal_timer_sleep_handler) refers to timer.o(.text.hal_timer_sleep_handler) for [Anonymous Symbol]
    timer.o(.text.hal_timer_mask_int) refers to timer.o(.rodata.TimerIndex) for TimerIndex
    timer.o(.ARM.exidx.text.hal_timer_mask_int) refers to timer.o(.text.hal_timer_mask_int) for [Anonymous Symbol]
    timer.o(.text.hal_timer_set) refers to clock.o(.text.hal_clk_gate_enable) for hal_clk_gate_enable
    timer.o(.text.hal_timer_set) refers to timer.o(.text.hal_TIMER6_IRQHandler) for hal_TIMER6_IRQHandler
    timer.o(.text.hal_timer_set) refers to timer.o(.text.hal_TIMER5_IRQHandler) for hal_TIMER5_IRQHandler
    timer.o(.ARM.exidx.text.hal_timer_set) refers to timer.o(.text.hal_timer_set) for [Anonymous Symbol]
    timer.o(.text.hal_timer_stop) refers to clock.o(.text.hal_clk_gate_disable) for hal_clk_gate_disable
    timer.o(.ARM.exidx.text.hal_timer_stop) refers to timer.o(.text.hal_timer_stop) for [Anonymous Symbol]
    timer.o(.text.hal_timer_init) refers to clock.o(.text.hal_clk_gate_disable) for hal_clk_gate_disable
    timer.o(.text.hal_timer_init) refers to pwrmgr.o(.text.hal_pwrmgr_register) for hal_pwrmgr_register
    timer.o(.text.hal_timer_init) refers to timer.o(.bss.s_ap_callback) for [Anonymous Symbol]
    timer.o(.text.hal_timer_init) refers to timer.o(.text.hal_timer_sleep_handler) for hal_timer_sleep_handler
    timer.o(.text.hal_timer_init) refers to timer.o(.text.hal_timer_wakeup_handler) for hal_timer_wakeup_handler
    timer.o(.ARM.exidx.text.hal_timer_init) refers to timer.o(.text.hal_timer_init) for [Anonymous Symbol]
    timer.o(.text.hal_timer_wakeup_handler) refers to timer.o(.bss.s_ap_callback) for [Anonymous Symbol]
    timer.o(.ARM.exidx.text.hal_timer_wakeup_handler) refers to timer.o(.text.hal_timer_wakeup_handler) for [Anonymous Symbol]
    timer.o(.text.hal_timer_deinit) refers to pwrmgr.o(.text.hal_pwrmgr_unregister) for hal_pwrmgr_unregister
    timer.o(.text.hal_timer_deinit) refers to timer.o(.bss.s_ap_callback) for [Anonymous Symbol]
    timer.o(.ARM.exidx.text.hal_timer_deinit) refers to timer.o(.text.hal_timer_deinit) for [Anonymous Symbol]
    watchdog.o(.ARM.exidx.text.hal_WATCHDOG_IRQHandler) refers to watchdog.o(.text.hal_WATCHDOG_IRQHandler) for [Anonymous Symbol]
    watchdog.o(_section_sram_code_) refers to clock.o(.text.hal_clk_gate_enable) for hal_clk_gate_enable
    watchdog.o(_section_sram_code_) refers to watchdog.o(.data.g_wdt_cycle) for g_wdt_cycle
    watchdog.o(_section_sram_code_) refers to main.o(.bss.g_clk32K_config) for g_clk32K_config
    watchdog.o(_section_sram_code_) refers to pwrmgr.o(.data..L_MergedGlobals) for s_config_swClk1
    watchdog.o(.ARM.exidx_section_sram_code_) refers to watchdog.o(_section_sram_code_) for [Anonymous Symbol]
    watchdog.o(.ARM.exidx.text.hal_watchdog_feed) refers to watchdog.o(.text.hal_watchdog_feed) for [Anonymous Symbol]
    watchdog.o(.text.watchdog_config) refers to clock.o(.text.hal_clk_gate_enable) for hal_clk_gate_enable
    watchdog.o(.text.watchdog_config) refers to watchdog.o(.data.g_wdt_cycle) for g_wdt_cycle
    watchdog.o(.text.watchdog_config) refers to main.o(.bss.g_clk32K_config) for g_clk32K_config
    watchdog.o(.text.watchdog_config) refers to pwrmgr.o(.data..L_MergedGlobals) for s_config_swClk1
    watchdog.o(.text.watchdog_config) refers to watchdog.o(_section_sram_code_) for hal_watchdog_init
    watchdog.o(.ARM.exidx.text.watchdog_config) refers to watchdog.o(.text.watchdog_config) for [Anonymous Symbol]
    pwrmgr.o(.ARM.exidx_section_sram_code_) refers to pwrmgr.o(_section_sram_code_) for [Anonymous Symbol]
    pwrmgr.o(.text.hal_pwrmgr_init) refers to pwrmgr.o(.bss.mCtx) for [Anonymous Symbol]
    pwrmgr.o(.text.hal_pwrmgr_init) refers to pwrmgr.o(_section_sram_code_) for osal_idle_task
    pwrmgr.o(.ARM.exidx.text.hal_pwrmgr_init) refers to pwrmgr.o(.text.hal_pwrmgr_init) for [Anonymous Symbol]
    pwrmgr.o(.text.hal_pwrmgr_clk_gate_config) refers to pwrmgr.o(.data..L_MergedGlobals) for [Anonymous Symbol]
    pwrmgr.o(.ARM.exidx.text.hal_pwrmgr_clk_gate_config) refers to pwrmgr.o(.text.hal_pwrmgr_clk_gate_config) for [Anonymous Symbol]
    pwrmgr.o(.text.hal_pwrmgr_is_lock) refers to pwrmgr.o(.bss.mCtx) for [Anonymous Symbol]
    pwrmgr.o(.ARM.exidx.text.hal_pwrmgr_is_lock) refers to pwrmgr.o(.text.hal_pwrmgr_is_lock) for [Anonymous Symbol]
    pwrmgr.o(.text.hal_pwrmgr_lock) refers to pwrmgr.o(.bss.mCtx) for [Anonymous Symbol]
    pwrmgr.o(.ARM.exidx.text.hal_pwrmgr_lock) refers to pwrmgr.o(.text.hal_pwrmgr_lock) for [Anonymous Symbol]
    pwrmgr.o(.text.hal_pwrmgr_unlock) refers to pwrmgr.o(.bss.mCtx) for [Anonymous Symbol]
    pwrmgr.o(.ARM.exidx.text.hal_pwrmgr_unlock) refers to pwrmgr.o(.text.hal_pwrmgr_unlock) for [Anonymous Symbol]
    pwrmgr.o(.text.hal_pwrmgr_register) refers to pwrmgr.o(.bss.mCtx) for [Anonymous Symbol]
    pwrmgr.o(.ARM.exidx.text.hal_pwrmgr_register) refers to pwrmgr.o(.text.hal_pwrmgr_register) for [Anonymous Symbol]
    pwrmgr.o(.text.hal_pwrmgr_unregister) refers to pwrmgr.o(.bss.mCtx) for [Anonymous Symbol]
    pwrmgr.o(.ARM.exidx.text.hal_pwrmgr_unregister) refers to pwrmgr.o(.text.hal_pwrmgr_unregister) for [Anonymous Symbol]
    pwrmgr.o(.text.hal_pwrmgr_wakeup_process) refers to pwrmgr.o(.data..L_MergedGlobals) for [Anonymous Symbol]
    pwrmgr.o(.text.hal_pwrmgr_wakeup_process) refers to pwrmgr.o(.bss..L_MergedGlobals.1) for [Anonymous Symbol]
    pwrmgr.o(.text.hal_pwrmgr_wakeup_process) refers to pwrmgr.o(.bss.mCtx) for [Anonymous Symbol]
    pwrmgr.o(.ARM.exidx.text.hal_pwrmgr_wakeup_process) refers to pwrmgr.o(.text.hal_pwrmgr_wakeup_process) for [Anonymous Symbol]
    pwrmgr.o(.text.hal_pwrmgr_sleep_process) refers to pwrmgr.o(.bss..L_MergedGlobals.1) for [Anonymous Symbol]
    pwrmgr.o(.text.hal_pwrmgr_sleep_process) refers to pwrmgr.o(.bss.mCtx) for [Anonymous Symbol]
    pwrmgr.o(.ARM.exidx.text.hal_pwrmgr_sleep_process) refers to pwrmgr.o(.text.hal_pwrmgr_sleep_process) for [Anonymous Symbol]
    pwrmgr.o(.text.hal_pwrmgr_RAM_retention_set) refers to pwrmgr.o(.bss..L_MergedGlobals.1) for [Anonymous Symbol]
    pwrmgr.o(.ARM.exidx.text.hal_pwrmgr_RAM_retention_set) refers to pwrmgr.o(.text.hal_pwrmgr_RAM_retention_set) for [Anonymous Symbol]
    pwrmgr.o(.text.hal_pwrmgr_RAM_retention) refers to pwrmgr.o(.bss..L_MergedGlobals.1) for [Anonymous Symbol]
    pwrmgr.o(.ARM.exidx.text.hal_pwrmgr_RAM_retention) refers to pwrmgr.o(.text.hal_pwrmgr_RAM_retention) for [Anonymous Symbol]
    pwrmgr.o(.ARM.exidx.text.hal_pwrmgr_RAM_retention_clr) refers to pwrmgr.o(.text.hal_pwrmgr_RAM_retention_clr) for [Anonymous Symbol]
    pwrmgr.o(.text.hal_pwrmgr_LowCurrentLdo_enable) refers to flash.o(.text.hal_flash_read) for hal_flash_read
    pwrmgr.o(.ARM.exidx.text.hal_pwrmgr_LowCurrentLdo_enable) refers to pwrmgr.o(.text.hal_pwrmgr_LowCurrentLdo_enable) for [Anonymous Symbol]
    pwrmgr.o(.ARM.exidx.text.hal_pwrmgr_LowCurrentLdo_disable) refers to pwrmgr.o(.text.hal_pwrmgr_LowCurrentLdo_disable) for [Anonymous Symbol]
    pwrmgr.o(.ARM.exidx.text.hal_pwrmgr_poweroff) refers to pwrmgr.o(.text.hal_pwrmgr_poweroff) for [Anonymous Symbol]
    pwrmgr.o(_section_standby_code_) refers to gpio.o(.text.hal_gpio_pin2pin3_control) for hal_gpio_pin2pin3_control
    pwrmgr.o(_section_standby_code_) refers to pwrmgr.o(_section_standby_var_) for pwroff_register_number
    pwrmgr.o(_section_standby_code_) refers to pwrmgr.o(_section_standby_var_) for s_pwroff_cfg
    pwrmgr.o(.ARM.exidx_section_standby_code_) refers to pwrmgr.o(_section_standby_code_) for [Anonymous Symbol]
    my_printf.o(.text.dbg_printf) refers to uart.o(.text.hal_uart_send_buff) for hal_uart_send_buff
    my_printf.o(.text.dbg_printf) refers to my_printf.o(.text.number) for number
    my_printf.o(.ARM.exidx.text.dbg_printf) refers to my_printf.o(.text.dbg_printf) for [Anonymous Symbol]
    my_printf.o(.text.dbg_printf_init) refers to uart.o(.text.hal_uart_init) for hal_uart_init
    my_printf.o(.ARM.exidx.text.dbg_printf_init) refers to my_printf.o(.text.dbg_printf_init) for [Anonymous Symbol]
    my_printf.o(.text.my_dump_byte) refers to my_printf.o(.text.dbg_printf) for dbg_printf
    my_printf.o(.ARM.exidx.text.my_dump_byte) refers to my_printf.o(.text.my_dump_byte) for [Anonymous Symbol]
    my_printf.o(.text.number) refers to uart.o(.text.hal_uart_send_buff) for hal_uart_send_buff
    my_printf.o(.ARM.exidx.text.number) refers to my_printf.o(.text.number) for [Anonymous Symbol]
    key.o(.text.key_init) refers to gpio.o(.text.hal_gpio_pull_set) for hal_gpio_pull_set
    key.o(.text.key_init) refers to gpio.o(.text.hal_gpioin_register) for hal_gpioin_register
    key.o(.text.key_init) refers to pwrmgr.o(.text.hal_pwrmgr_register) for hal_pwrmgr_register
    key.o(.text.key_init) refers to key.o(.bss.key_state) for key_state
    key.o(.text.key_init) refers to key.o(.text.pin_event_handler) for pin_event_handler
    key.o(.ARM.exidx.text.key_init) refers to key.o(.text.key_init) for [Anonymous Symbol]
    key.o(.text.pin_event_handler) refers to pwrmgr.o(.text.hal_pwrmgr_lock) for hal_pwrmgr_lock
    key.o(.text.pin_event_handler) refers to key.o(.bss.key_state) for key_state
    key.o(.ARM.exidx.text.pin_event_handler) refers to key.o(.text.pin_event_handler) for [Anonymous Symbol]
    key.o(.text.gpio_key_timer_handler) refers to gpio.o(.text.hal_gpio_read) for hal_gpio_read
    key.o(.text.gpio_key_timer_handler) refers to pwrmgr.o(.text.hal_pwrmgr_unlock) for hal_pwrmgr_unlock
    key.o(.text.gpio_key_timer_handler) refers to key.o(.bss.key_state) for key_state
    key.o(.ARM.exidx.text.gpio_key_timer_handler) refers to key.o(.text.gpio_key_timer_handler) for [Anonymous Symbol]
    pwm.o(.text.hal_pwm_init) refers to clock.o(.text.hal_clk_gate_enable) for hal_clk_gate_enable
    pwm.o(.text.hal_pwm_init) refers to pwrmgr.o(.text.hal_pwrmgr_register) for hal_pwrmgr_register
    pwm.o(.ARM.exidx.text.hal_pwm_init) refers to pwm.o(.text.hal_pwm_init) for [Anonymous Symbol]
    pwm.o(.text.hal_pwm_open_channel) refers to gpio.o(.text.hal_gpio_fmux_set) for hal_gpio_fmux_set
    pwm.o(.text.hal_pwm_open_channel) refers to pwm.o(.data.pwm_gpio_map) for [Anonymous Symbol]
    pwm.o(.ARM.exidx.text.hal_pwm_open_channel) refers to pwm.o(.text.hal_pwm_open_channel) for [Anonymous Symbol]
    pwm.o(.text.hal_pwm_close_channel) refers to gpio.o(.text.hal_gpio_fmux) for hal_gpio_fmux
    pwm.o(.text.hal_pwm_close_channel) refers to pwm.o(.data.pwm_gpio_map) for [Anonymous Symbol]
    pwm.o(.ARM.exidx.text.hal_pwm_close_channel) refers to pwm.o(.text.hal_pwm_close_channel) for [Anonymous Symbol]
    pwm.o(.ARM.exidx.text.hal_pwm_destroy) refers to pwm.o(.text.hal_pwm_destroy) for [Anonymous Symbol]
    pwm.o(.ARM.exidx.text.hal_pwm_set_count_val) refers to pwm.o(.text.hal_pwm_set_count_val) for [Anonymous Symbol]
    pwm.o(.text.hal_pwm_start) refers to pwrmgr.o(.text.hal_pwrmgr_lock) for hal_pwrmgr_lock
    pwm.o(.text.hal_pwm_start) refers to pwm.o(.bss..L_MergedGlobals) for [Anonymous Symbol]
    pwm.o(.ARM.exidx.text.hal_pwm_start) refers to pwm.o(.text.hal_pwm_start) for [Anonymous Symbol]
    pwm.o(.text.hal_pwm_stop) refers to pwrmgr.o(.text.hal_pwrmgr_unlock) for hal_pwrmgr_unlock
    pwm.o(.text.hal_pwm_stop) refers to clock.o(.text.hal_clk_gate_disable) for hal_clk_gate_disable
    pwm.o(.text.hal_pwm_stop) refers to pwm.o(.bss..L_MergedGlobals) for [Anonymous Symbol]
    pwm.o(.ARM.exidx.text.hal_pwm_stop) refers to pwm.o(.text.hal_pwm_stop) for [Anonymous Symbol]
    pwm.o(.text.hal_pwm_module_init) refers to pwrmgr.o(.text.hal_pwrmgr_unlock) for hal_pwrmgr_unlock
    pwm.o(.text.hal_pwm_module_init) refers to clock.o(.text.hal_clk_gate_disable) for hal_clk_gate_disable
    pwm.o(.text.hal_pwm_module_init) refers to pwm.o(.bss..L_MergedGlobals) for [Anonymous Symbol]
    pwm.o(.ARM.exidx.text.hal_pwm_module_init) refers to pwm.o(.text.hal_pwm_module_init) for [Anonymous Symbol]
    pwm.o(.text.hal_pwm_module_deinit) refers to gpio.o(.text.hal_gpio_fmux) for hal_gpio_fmux
    pwm.o(.text.hal_pwm_module_deinit) refers to pwrmgr.o(.text.hal_pwrmgr_unlock) for hal_pwrmgr_unlock
    pwm.o(.text.hal_pwm_module_deinit) refers to clock.o(.text.hal_clk_gate_disable) for hal_clk_gate_disable
    pwm.o(.text.hal_pwm_module_deinit) refers to pwm.o(.bss..L_MergedGlobals) for [Anonymous Symbol]
    pwm.o(.text.hal_pwm_module_deinit) refers to pwm.o(.data.pwm_gpio_map) for [Anonymous Symbol]
    pwm.o(.ARM.exidx.text.hal_pwm_module_deinit) refers to pwm.o(.text.hal_pwm_module_deinit) for [Anonymous Symbol]
    pwm.o(.text.hal_pwm_ch_start) refers to clock.o(.text.hal_clk_gate_enable) for hal_clk_gate_enable
    pwm.o(.text.hal_pwm_ch_start) refers to pwrmgr.o(.text.hal_pwrmgr_register) for hal_pwrmgr_register
    pwm.o(.text.hal_pwm_ch_start) refers to gpio.o(.text.hal_gpio_fmux_set) for hal_gpio_fmux_set
    pwm.o(.text.hal_pwm_ch_start) refers to pwrmgr.o(.text.hal_pwrmgr_lock) for hal_pwrmgr_lock
    pwm.o(.text.hal_pwm_ch_start) refers to pwm.o(.bss..L_MergedGlobals) for [Anonymous Symbol]
    pwm.o(.text.hal_pwm_ch_start) refers to pwm.o(.data.pwm_gpio_map) for [Anonymous Symbol]
    pwm.o(.ARM.exidx.text.hal_pwm_ch_start) refers to pwm.o(.text.hal_pwm_ch_start) for [Anonymous Symbol]
    pwm.o(.text.hal_pwm_ch_stop) refers to gpio.o(.text.hal_gpio_fmux) for hal_gpio_fmux
    pwm.o(.text.hal_pwm_ch_stop) refers to pwm.o(.bss..L_MergedGlobals) for [Anonymous Symbol]
    pwm.o(.text.hal_pwm_ch_stop) refers to pwm.o(.data.pwm_gpio_map) for [Anonymous Symbol]
    pwm.o(.ARM.exidx.text.hal_pwm_ch_stop) refers to pwm.o(.text.hal_pwm_ch_stop) for [Anonymous Symbol]
    pwm.o(.text.hal_pwm_ch_enable) refers to pwm.o(.bss..L_MergedGlobals) for [Anonymous Symbol]
    pwm.o(.ARM.exidx.text.hal_pwm_ch_enable) refers to pwm.o(.text.hal_pwm_ch_enable) for [Anonymous Symbol]
    pwm.o(.text.hal_pwm_ch_reg) refers to pwm.o(.bss..L_MergedGlobals) for [Anonymous Symbol]
    pwm.o(.ARM.exidx.text.hal_pwm_ch_reg) refers to pwm.o(.text.hal_pwm_ch_reg) for [Anonymous Symbol]
    osal_snv.o(.ARM.exidx.text.osal_snv_init) refers to osal_snv.o(.text.osal_snv_init) for [Anonymous Symbol]
    osal_snv.o(.ARM.exidx.text.osal_snv_read) refers to osal_snv.o(.text.osal_snv_read) for [Anonymous Symbol]
    osal_snv.o(.ARM.exidx.text.osal_snv_write) refers to osal_snv.o(.text.osal_snv_write) for [Anonymous Symbol]
    osal_snv.o(.ARM.exidx.text.osal_snv_compact) refers to osal_snv.o(.text.osal_snv_compact) for [Anonymous Symbol]
    flash.o(.text.hal_get_flash_info) refers to flash.o(.text._spif_wait_nobusy_x) for _spif_wait_nobusy_x
    flash.o(.text.hal_get_flash_info) refers to flash.o(.data.phy_flash) for phy_flash
    flash.o(.ARM.exidx.text.hal_get_flash_info) refers to flash.o(.text.hal_get_flash_info) for [Anonymous Symbol]
    flash.o(.ARM.exidx.text._spif_wait_nobusy_x) refers to flash.o(.text._spif_wait_nobusy_x) for [Anonymous Symbol]
    flash.o(.text.hal_spif_cache_init) refers to flash.o(.text.hw_spif_cache_config) for hw_spif_cache_config
    flash.o(.text.hal_spif_cache_init) refers to pwrmgr.o(.text.hal_pwrmgr_register) for hal_pwrmgr_register
    flash.o(.text.hal_spif_cache_init) refers to flash.o(.data.s_xflashCtx) for [Anonymous Symbol]
    flash.o(.ARM.exidx.text.hal_spif_cache_init) refers to flash.o(.text.hal_spif_cache_init) for [Anonymous Symbol]
    flash.o(.text.hw_spif_cache_config) refers to clock.o(.text.hal_clk_gate_enable) for hal_clk_gate_enable
    flash.o(.text.hw_spif_cache_config) refers to flash.o(.text.hal_get_flash_info) for hal_get_flash_info
    flash.o(.text.hw_spif_cache_config) refers to flash.o(.data.s_xflashCtx) for [Anonymous Symbol]
    flash.o(.ARM.exidx.text.hw_spif_cache_config) refers to flash.o(.text.hw_spif_cache_config) for [Anonymous Symbol]
    flash.o(.text.hal_flash_read) refers to flash.o(.data.phy_flash) for phy_flash
    flash.o(.ARM.exidx.text.hal_flash_read) refers to flash.o(.text.hal_flash_read) for [Anonymous Symbol]
    flash.o(.text.hal_flash_write) refers to flash.o(.text._spif_wait_nobusy_x) for _spif_wait_nobusy_x
    flash.o(.ARM.exidx.text.hal_flash_write) refers to flash.o(.text.hal_flash_write) for [Anonymous Symbol]
    flash.o(.text.hal_flash_write_by_dma) refers to flash.o(.text._spif_wait_nobusy_x) for _spif_wait_nobusy_x
    flash.o(.ARM.exidx.text.hal_flash_write_by_dma) refers to flash.o(.text.hal_flash_write_by_dma) for [Anonymous Symbol]
    flash.o(.text.hal_flash_erase_sector) refers to flash.o(.text._spif_wait_nobusy_x) for _spif_wait_nobusy_x
    flash.o(.ARM.exidx.text.hal_flash_erase_sector) refers to flash.o(.text.hal_flash_erase_sector) for [Anonymous Symbol]
    flash.o(.text.hal_flash_erase_block64) refers to flash.o(.text._spif_wait_nobusy_x) for _spif_wait_nobusy_x
    flash.o(.ARM.exidx.text.hal_flash_erase_block64) refers to flash.o(.text.hal_flash_erase_block64) for [Anonymous Symbol]
    flash.o(.text.hal_flash_erase_all) refers to flash.o(.text._spif_wait_nobusy_x) for _spif_wait_nobusy_x
    flash.o(.ARM.exidx.text.hal_flash_erase_all) refers to flash.o(.text.hal_flash_erase_all) for [Anonymous Symbol]
    flash.o(.text.flash_write_word) refers to flash.o(.text.hal_flash_write) for hal_flash_write
    flash.o(.ARM.exidx.text.flash_write_word) refers to flash.o(.text.flash_write_word) for [Anonymous Symbol]
    flash.o(.text.read_chip_mAddr) refers to patch.o(i.chip_id_one_bit_hot_convter) for chip_id_one_bit_hot_convter
    flash.o(.text.read_chip_mAddr) refers to flash.o(.bss.g_chipMAddr) for g_chipMAddr
    flash.o(.ARM.exidx.text.read_chip_mAddr) refers to flash.o(.text.read_chip_mAddr) for [Anonymous Symbol]
    flash.o(.text.check_chip_mAddr) refers to flash.o(.text.read_chip_mAddr) for read_chip_mAddr
    flash.o(.text.check_chip_mAddr) refers to flash.o(.bss.g_chipMAddr) for g_chipMAddr
    flash.o(.ARM.exidx.text.check_chip_mAddr) refers to flash.o(.text.check_chip_mAddr) for [Anonymous Symbol]
    flash.o(.ARM.exidx.text.LOG_CHIP_MADDR) refers to flash.o(.text.LOG_CHIP_MADDR) for [Anonymous Symbol]
    led_light.o(.text.light_reflash) refers to pwm.o(.text.hal_pwm_ch_start) for hal_pwm_ch_start
    led_light.o(.text.light_reflash) refers to led_light.o(.bss..L_MergedGlobals) for [Anonymous Symbol]
    led_light.o(.ARM.exidx.text.light_reflash) refers to led_light.o(.text.light_reflash) for [Anonymous Symbol]
    led_light.o(.ARM.exidx.text.light_timeout_handle) refers to led_light.o(.text.light_timeout_handle) for [Anonymous Symbol]
    led_light.o(.text.light_config) refers to led_light.o(.bss..L_MergedGlobals) for [Anonymous Symbol]
    led_light.o(.ARM.exidx.text.light_config) refers to led_light.o(.text.light_config) for [Anonymous Symbol]
    led_light.o(.text.light_ctrl) refers to pwm.o(.text.hal_pwm_ch_start) for hal_pwm_ch_start
    led_light.o(.text.light_ctrl) refers to led_light.o(.bss..L_MergedGlobals) for [Anonymous Symbol]
    led_light.o(.ARM.exidx.text.light_ctrl) refers to led_light.o(.text.light_ctrl) for [Anonymous Symbol]
    led_light.o(.text.light_init) refers to gpio.o(.text.hal_gpio_pin_init) for hal_gpio_pin_init
    led_light.o(.text.light_init) refers to gpio.o(.text.hal_gpio_pull_set) for hal_gpio_pull_set
    led_light.o(.text.light_init) refers to pwm.o(.text.hal_pwm_module_init) for hal_pwm_module_init
    led_light.o(.text.light_init) refers to led_light.o(.bss..L_MergedGlobals) for [Anonymous Symbol]
    led_light.o(.ARM.exidx.text.light_init) refers to led_light.o(.text.light_init) for [Anonymous Symbol]
    led_light.o(.text.light_pwm_init) refers to pwm.o(.text.hal_pwm_module_init) for hal_pwm_module_init
    led_light.o(.text.light_pwm_init) refers to led_light.o(.bss..L_MergedGlobals) for [Anonymous Symbol]
    led_light.o(.ARM.exidx.text.light_pwm_init) refers to led_light.o(.text.light_pwm_init) for [Anonymous Symbol]
    led_light.o(.text.light_pwm_deinit) refers to pwm.o(.text.hal_pwm_ch_stop) for hal_pwm_ch_stop
    led_light.o(.text.light_pwm_deinit) refers to pwm.o(.text.hal_pwm_module_deinit) for hal_pwm_module_deinit
    led_light.o(.text.light_pwm_deinit) refers to led_light.o(.bss..L_MergedGlobals) for [Anonymous Symbol]
    led_light.o(.ARM.exidx.text.light_pwm_deinit) refers to led_light.o(.text.light_pwm_deinit) for [Anonymous Symbol]
    led_light.o(.text.light_blink_evt_cfg) refers to led_light.o(.bss..L_MergedGlobals) for [Anonymous Symbol]
    led_light.o(.ARM.exidx.text.light_blink_evt_cfg) refers to led_light.o(.text.light_blink_evt_cfg) for [Anonymous Symbol]
    led_light.o(.text.light_blink_set) refers to pwm.o(.text.hal_pwm_ch_start) for hal_pwm_ch_start
    led_light.o(.text.light_blink_set) refers to led_light.o(.bss..L_MergedGlobals) for [Anonymous Symbol]
    led_light.o(.ARM.exidx.text.light_blink_set) refers to led_light.o(.text.light_blink_set) for [Anonymous Symbol]
    led_light.o(.text.light_blink_porcess_evt) refers to pwm.o(.text.hal_pwm_ch_start) for hal_pwm_ch_start
    led_light.o(.text.light_blink_porcess_evt) refers to led_light.o(.bss..L_MergedGlobals) for [Anonymous Symbol]
    led_light.o(.ARM.exidx.text.light_blink_porcess_evt) refers to led_light.o(.text.light_blink_porcess_evt) for [Anonymous Symbol]
    led_light.o(.text.light_color_quickSet) refers to pwm.o(.text.hal_pwm_ch_start) for hal_pwm_ch_start
    led_light.o(.text.light_color_quickSet) refers to led_light.o(.bss..L_MergedGlobals) for [Anonymous Symbol]
    led_light.o(.ARM.exidx.text.light_color_quickSet) refers to led_light.o(.text.light_color_quickSet) for [Anonymous Symbol]
    fs.o(.text.hal_fs_get_free_size) refers to fs.o(.bss..L_MergedGlobals) for [Anonymous Symbol]
    fs.o(.ARM.exidx.text.hal_fs_get_free_size) refers to fs.o(.text.hal_fs_get_free_size) for [Anonymous Symbol]
    fs.o(.text.hal_fs_get_garbage_size) refers to fs.o(.text.fs_search_items) for fs_search_items
    fs.o(.text.hal_fs_get_garbage_size) refers to fs.o(.bss..L_MergedGlobals) for [Anonymous Symbol]
    fs.o(.ARM.exidx.text.hal_fs_get_garbage_size) refers to fs.o(.text.hal_fs_get_garbage_size) for [Anonymous Symbol]
    fs.o(.text.fs_search_items) refers to flash.o(.text.hal_flash_read) for hal_flash_read
    fs.o(.text.fs_search_items) refers to fs.o(.bss..L_MergedGlobals) for [Anonymous Symbol]
    fs.o(.ARM.exidx.text.fs_search_items) refers to fs.o(.text.fs_search_items) for [Anonymous Symbol]
    fs.o(.text.hal_fs_item_find_id) refers to fs.o(.text.fs_search_items) for fs_search_items
    fs.o(.text.hal_fs_item_find_id) refers to fs.o(.bss..L_MergedGlobals) for [Anonymous Symbol]
    fs.o(.ARM.exidx.text.hal_fs_item_find_id) refers to fs.o(.text.hal_fs_item_find_id) for [Anonymous Symbol]
    fs.o(.text.hal_fs_item_write) refers to patch.o(i.__psr) for __psr
    fs.o(.text.hal_fs_item_write) refers to fs.o(.text.fs_search_items) for fs_search_items
    fs.o(.text.hal_fs_item_write) refers to fs.o(.text.hal_fs_item_del) for hal_fs_item_del
    fs.o(.text.hal_fs_item_write) refers to flash.o(.text.hal_flash_write) for hal_flash_write
    fs.o(.text.hal_fs_item_write) refers to fs.o(.bss..L_MergedGlobals) for [Anonymous Symbol]
    fs.o(.ARM.exidx.text.hal_fs_item_write) refers to fs.o(.text.hal_fs_item_write) for [Anonymous Symbol]
    fs.o(.text.hal_fs_item_del) refers to patch.o(i.__psr) for __psr
    fs.o(.text.hal_fs_item_del) refers to fs.o(.text.fs_search_items) for fs_search_items
    fs.o(.text.hal_fs_item_del) refers to flash.o(.text.hal_flash_read) for hal_flash_read
    fs.o(.text.hal_fs_item_del) refers to flash.o(.text.hal_flash_write) for hal_flash_write
    fs.o(.text.hal_fs_item_del) refers to fs.o(.bss..L_MergedGlobals) for [Anonymous Symbol]
    fs.o(.ARM.exidx.text.hal_fs_item_del) refers to fs.o(.text.hal_fs_item_del) for [Anonymous Symbol]
    fs.o(.text.hal_fs_item_read) refers to patch.o(i.__psr) for __psr
    fs.o(.text.hal_fs_item_read) refers to fs.o(.text.fs_search_items) for fs_search_items
    fs.o(.text.hal_fs_item_read) refers to flash.o(.text.hal_flash_read) for hal_flash_read
    fs.o(.text.hal_fs_item_read) refers to fs.o(.bss..L_MergedGlobals) for [Anonymous Symbol]
    fs.o(.ARM.exidx.text.hal_fs_item_read) refers to fs.o(.text.hal_fs_item_read) for [Anonymous Symbol]
    fs.o(.text.hal_fs_garbage_collect) refers to patch.o(i.__psr) for __psr
    fs.o(.text.hal_fs_garbage_collect) refers to flash.o(.text.hal_flash_write) for hal_flash_write
    fs.o(.text.hal_fs_garbage_collect) refers to flash.o(.text.hal_flash_read) for hal_flash_read
    fs.o(.text.hal_fs_garbage_collect) refers to flash.o(.text.hal_flash_erase_sector) for hal_flash_erase_sector
    fs.o(.text.hal_fs_garbage_collect) refers to fs.o(.text.fs_init) for fs_init
    fs.o(.text.hal_fs_garbage_collect) refers to fs.o(.bss..L_MergedGlobals) for [Anonymous Symbol]
    fs.o(.ARM.exidx.text.hal_fs_garbage_collect) refers to fs.o(.text.hal_fs_garbage_collect) for [Anonymous Symbol]
    fs.o(.text.fs_init) refers to flash.o(.text.hal_flash_read) for hal_flash_read
    fs.o(.text.fs_init) refers to patch.o(i.__psr) for __psr
    fs.o(.text.fs_init) refers to flash.o(.text.hal_flash_write) for hal_flash_write
    fs.o(.text.fs_init) refers to fs.o(.text.fs_search_items) for fs_search_items
    fs.o(.text.fs_init) refers to fs.o(.bss..L_MergedGlobals) for [Anonymous Symbol]
    fs.o(.ARM.exidx.text.fs_init) refers to fs.o(.text.fs_init) for [Anonymous Symbol]
    fs.o(.text.hal_fs_format) refers to patch.o(i.__psr) for __psr
    fs.o(.text.hal_fs_format) refers to flash.o(.text.hal_flash_erase_sector) for hal_flash_erase_sector
    fs.o(.text.hal_fs_format) refers to fs.o(.text.fs_init) for fs_init
    fs.o(.text.hal_fs_format) refers to fs.o(.bss..L_MergedGlobals) for [Anonymous Symbol]
    fs.o(.ARM.exidx.text.hal_fs_format) refers to fs.o(.text.hal_fs_format) for [Anonymous Symbol]
    fs.o(.text.hal_fs_init) refers to fs.o(.text.fs_init) for fs_init
    fs.o(.text.hal_fs_init) refers to fs.o(.bss..L_MergedGlobals) for [Anonymous Symbol]
    fs.o(.ARM.exidx.text.hal_fs_init) refers to fs.o(.text.hal_fs_init) for [Anonymous Symbol]
    fs.o(.text.hal_fs_initialized) refers to fs.o(.bss..L_MergedGlobals) for [Anonymous Symbol]
    fs.o(.ARM.exidx.text.hal_fs_initialized) refers to fs.o(.text.hal_fs_initialized) for [Anonymous Symbol]
    gap.o(.text.GAP_DeviceInit) refers to gap_configmgr.o(i.GAP_ParamsInit) for GAP_ParamsInit
    gap.o(.text.GAP_DeviceInit) refers to gap_centdevmgr.o(i.GAP_CentDevMgrInit) for GAP_CentDevMgrInit
    gap.o(.text.GAP_DeviceInit) refers to gap_peridevmgr.o(i.GAP_PeriDevMgrInit) for GAP_PeriDevMgrInit
    gap.o(.ARM.exidx.text.GAP_DeviceInit) refers to gap.o(.text.GAP_DeviceInit) for [Anonymous Symbol]
    jump_table.o(.text._hard_fault) refers to jump_table.o(.rodata.str1.1) for [Anonymous Symbol]
    jump_table.o(.text._hard_fault) refers to jump_table.o(.bss.trap_c_callback) for trap_c_callback
    jump_table.o(.ARM.exidx.text._hard_fault) refers to jump_table.o(.text._hard_fault) for [Anonymous Symbol]
    jump_table.o(.text.hard_fault) refers to jump_table.o(.rodata.str1.1) for [Anonymous Symbol]
    jump_table.o(.text.hard_fault) refers to jump_table.o(.bss.trap_c_callback) for trap_c_callback
    jump_table.o(.ARM.exidx.text.hard_fault) refers to jump_table.o(.text.hard_fault) for [Anonymous Symbol]
    jump_table.o(jump_table_mem_area) refers to osal_findmy.o(.text.osalInitTasks) for osalInitTasks
    jump_table.o(jump_table_mem_area) refers to osal_findmy.o(.rodata.tasksArr) for tasksArr
    jump_table.o(jump_table_mem_area) refers to osal_findmy.o(.rodata.tasksCnt) for tasksCnt
    jump_table.o(jump_table_mem_area) refers to osal_findmy.o(.bss.tasksEvents) for tasksEvents
    jump_table.o(jump_table_mem_area) refers (Weak) to pwrmgr.o(.text.hal_pwrmgr_sleep_process) for hal_pwrmgr_sleep_process
    jump_table.o(jump_table_mem_area) refers (Weak) to pwrmgr.o(.text.hal_pwrmgr_wakeup_process) for hal_pwrmgr_wakeup_process
    jump_table.o(jump_table_mem_area) refers to rf_phy_driver.o(i.rf_phy_ini) for rf_phy_ini
    jump_table.o(jump_table_mem_area) refers to jump_table.o(.text.hard_fault) for hard_fault
    jump_table.o(jump_table_mem_area) refers (Weak) to uart.o(_section_sram_code_) for hal_UART0_IRQHandler
    findmy.o(.ARM.exidx.text.setAddrFromKey) refers to findmy.o(.text.setAddrFromKey) for [Anonymous Symbol]
    findmy.o(.ARM.exidx.text.setPayloadFromKey) refers to findmy.o(.text.setPayloadFromKey) for [Anonymous Symbol]
    findmy.o(.text.FindMy_Init) refers to key.o(.text.key_init) for key_init
    findmy.o(.text.FindMy_Init) refers to gap_configmgr.o(i.GAP_SetParamValue) for GAP_SetParamValue
    findmy.o(.text.FindMy_Init) refers to multi.o(.text.GAPMultiRole_SetParameter) for GAPMultiRole_SetParameter
    findmy.o(.text.FindMy_Init) refers to gap_task.o(i.GAP_RegisterForHCIMsgs) for GAP_RegisterForHCIMsgs
    findmy.o(.text.FindMy_Init) refers to findmy.o(.bss..L_MergedGlobals.2) for [Anonymous Symbol]
    findmy.o(.text.FindMy_Init) refers to key.o(.bss.key_state) for key_state
    findmy.o(.text.FindMy_Init) refers to findmy.o(.text.findMy_keyPressEvt) for findMy_keyPressEvt
    findmy.o(.text.FindMy_Init) refers to findmy.o(.data..L_MergedGlobals) for [Anonymous Symbol]
    findmy.o(.text.FindMy_Init) refers to findmy.o(.bss.g_perStatsByChanTest) for g_perStatsByChanTest
    findmy.o(.ARM.exidx.text.FindMy_Init) refers to findmy.o(.text.FindMy_Init) for [Anonymous Symbol]
    findmy.o(.text.findMy_keyPressEvt) refers to pwm.o(.text.hal_pwm_ch_stop) for hal_pwm_ch_stop
    findmy.o(.text.findMy_keyPressEvt) refers to findmy.o(.data..L_MergedGlobals) for [Anonymous Symbol]
    findmy.o(.text.findMy_keyPressEvt) refers to findmy.o(.bss..L_MergedGlobals.2) for [Anonymous Symbol]
    findmy.o(.ARM.exidx.text.findMy_keyPressEvt) refers to findmy.o(.text.findMy_keyPressEvt) for [Anonymous Symbol]
    findmy.o(.text.FindMy_ProcessEvent) refers to key.o(.text.gpio_key_timer_handler) for gpio_key_timer_handler
    findmy.o(.text.FindMy_ProcessEvent) refers to multi.o(.text.GAPMultiRole_StartDevice) for GAPMultiRole_StartDevice
    findmy.o(.text.FindMy_ProcessEvent) refers to multi.o(.text.GAPMultiRole_StartDiscovery) for GAPMultiRole_StartDiscovery
    findmy.o(.text.FindMy_ProcessEvent) refers to multi.o(.text.GAPMultiRole_CancelDiscovery) for GAPMultiRole_CancelDiscovery
    findmy.o(.text.FindMy_ProcessEvent) refers to multi.o(.text.GAPMultiRole_SetParameter) for GAPMultiRole_SetParameter
    findmy.o(.text.FindMy_ProcessEvent) refers to pwm.o(.text.hal_pwm_ch_stop) for hal_pwm_ch_stop
    findmy.o(.text.FindMy_ProcessEvent) refers to pwm.o(.text.hal_pwm_ch_start) for hal_pwm_ch_start
    findmy.o(.text.FindMy_ProcessEvent) refers to key.o(.bss.key_state) for key_state
    findmy.o(.text.FindMy_ProcessEvent) refers to findmy.o(.data..L_MergedGlobals) for [Anonymous Symbol]
    findmy.o(.text.FindMy_ProcessEvent) refers to findmy.o(.rodata.findMy_ObserverCBs) for [Anonymous Symbol]
    findmy.o(.text.FindMy_ProcessEvent) refers to findmy.o(.bss..L_MergedGlobals.2) for [Anonymous Symbol]
    findmy.o(.ARM.exidx.text.FindMy_ProcessEvent) refers to findmy.o(.text.FindMy_ProcessEvent) for [Anonymous Symbol]
    findmy.o(.text.addr2Str) refers to findmy.o(.rodata.str1.1) for [Anonymous Symbol]
    findmy.o(.text.addr2Str) refers to findmy.o(.bss.addr2Str.str) for [Anonymous Symbol]
    findmy.o(.ARM.exidx.text.addr2Str) refers to findmy.o(.text.addr2Str) for [Anonymous Symbol]
    findmy.o(.text.findMy_broadcasterEventCB) refers to findmy.o(.bss..L_MergedGlobals.2) for [Anonymous Symbol]
    findmy.o(.ARM.exidx.text.findMy_broadcasterEventCB) refers to findmy.o(.text.findMy_broadcasterEventCB) for [Anonymous Symbol]
    findmy.o(.text.findMy_observerEventCB) refers to strstr.o(.text) for strstr
    findmy.o(.text.findMy_observerEventCB) refers to findmy.o(.bss..L_MergedGlobals.2) for [Anonymous Symbol]
    findmy.o(.ARM.exidx.text.findMy_observerEventCB) refers to findmy.o(.text.findMy_observerEventCB) for [Anonymous Symbol]
    findmy.o(.rodata.findMy_ObserverCBs) refers to findmy.o(.text.findMy_observerEventCB) for findMy_observerEventCB
    findmy.o(.data..L_MergedGlobals) refers to findmy.o(.text.findMy_broadcasterEventCB) for findMy_broadcasterEventCB
    findmy_main.o(.ARM.exidx.text.app_main) refers to findmy_main.o(.text.app_main) for [Anonymous Symbol]
    osal_findmy.o(.text.osalInitTasks) refers to gap_task.o(i.GAP_Init) for GAP_Init
    osal_findmy.o(.text.osalInitTasks) refers to multi.o(.text.GAPMultiRole_Init) for GAPMultiRole_Init
    osal_findmy.o(.text.osalInitTasks) refers to findmy.o(.text.FindMy_Init) for FindMy_Init
    osal_findmy.o(.text.osalInitTasks) refers to osal_findmy.o(.bss.tasksEvents) for tasksEvents
    osal_findmy.o(.ARM.exidx.text.osalInitTasks) refers to osal_findmy.o(.text.osalInitTasks) for [Anonymous Symbol]
    osal_findmy.o(.rodata.tasksArr) refers to gap_task.o(i.GAP_ProcessEvent) for GAP_ProcessEvent
    osal_findmy.o(.rodata.tasksArr) refers to multi.o(.text.GAPMultiRole_ProcessEvent) for GAPMultiRole_ProcessEvent
    osal_findmy.o(.rodata.tasksArr) refers to findmy.o(.text.FindMy_ProcessEvent) for FindMy_ProcessEvent
    multi.o(.text.GAPRole_SetParameter) refers to gap_peridevmgr.o(i.GAP_EndDiscoverable) for GAP_EndDiscoverable
    multi.o(.text.GAPRole_SetParameter) refers to gap_configmgr.o(i.GAP_SetParamValue) for GAP_SetParamValue
    multi.o(.text.GAPRole_SetParameter) refers to multi.o(.bss..L_MergedGlobals.2) for [Anonymous Symbol]
    multi.o(.text.GAPRole_SetParameter) refers to multi.o(.data..L_MergedGlobals) for [Anonymous Symbol]
    multi.o(.ARM.exidx.text.GAPRole_SetParameter) refers to multi.o(.text.GAPRole_SetParameter) for [Anonymous Symbol]
    multi.o(.text.GAPRole_GetParameter) refers to gap_configmgr.o(i.GAP_GetParamValue) for GAP_GetParamValue
    multi.o(.text.GAPRole_GetParameter) refers to multi.o(.bss..L_MergedGlobals.2) for [Anonymous Symbol]
    multi.o(.text.GAPRole_GetParameter) refers to multi.o(.data..L_MergedGlobals) for [Anonymous Symbol]
    multi.o(.ARM.exidx.text.GAPRole_GetParameter) refers to multi.o(.text.GAPRole_GetParameter) for [Anonymous Symbol]
    multi.o(.text.GAPRole_StartDevice) refers to gap.o(.text.GAP_DeviceInit) for GAP_DeviceInit
    multi.o(.text.GAPRole_StartDevice) refers to multi.o(.bss..L_MergedGlobals.2) for [Anonymous Symbol]
    multi.o(.ARM.exidx.text.GAPRole_StartDevice) refers to multi.o(.text.GAPRole_StartDevice) for [Anonymous Symbol]
    multi.o(.text.GAPRole_Init) refers to gap_task.o(i.GAP_RegisterForHCIMsgs) for GAP_RegisterForHCIMsgs
    multi.o(.text.GAPRole_Init) refers to multi.o(.bss..L_MergedGlobals.2) for [Anonymous Symbol]
    multi.o(.ARM.exidx.text.GAPRole_Init) refers to multi.o(.text.GAPRole_Init) for [Anonymous Symbol]
    multi.o(.text.GAPRole_ProcessEvent) refers to multi.o(.text.gapRole_ProcessGAPMsg) for gapRole_ProcessGAPMsg
    multi.o(.text.GAPRole_ProcessEvent) refers to gap_peridevmgr.o(i.GAP_MakeDiscoverable) for GAP_MakeDiscoverable
    multi.o(.text.GAPRole_ProcessEvent) refers to multi.o(.bss..L_MergedGlobals.2) for [Anonymous Symbol]
    multi.o(.text.GAPRole_ProcessEvent) refers to multi.o(.data..L_MergedGlobals) for [Anonymous Symbol]
    multi.o(.ARM.exidx.text.GAPRole_ProcessEvent) refers to multi.o(.text.GAPRole_ProcessEvent) for [Anonymous Symbol]
    multi.o(.text.GAPObserverRole_StartDevice) refers to gap.o(.text.GAP_DeviceInit) for GAP_DeviceInit
    multi.o(.text.GAPObserverRole_StartDevice) refers to multi.o(.bss..L_MergedGlobals.2) for [Anonymous Symbol]
    multi.o(.ARM.exidx.text.GAPObserverRole_StartDevice) refers to multi.o(.text.GAPObserverRole_StartDevice) for [Anonymous Symbol]
    multi.o(.text.GAPObserverRole_SetParameter) refers to multi.o(.bss..L_MergedGlobals.2) for [Anonymous Symbol]
    multi.o(.ARM.exidx.text.GAPObserverRole_SetParameter) refers to multi.o(.text.GAPObserverRole_SetParameter) for [Anonymous Symbol]
    multi.o(.text.GAPObserverRole_GetParameter) refers to multi.o(.bss..L_MergedGlobals.2) for [Anonymous Symbol]
    multi.o(.ARM.exidx.text.GAPObserverRole_GetParameter) refers to multi.o(.text.GAPObserverRole_GetParameter) for [Anonymous Symbol]
    multi.o(.text.GAPObserverRole_StartDiscovery) refers to gap_centdevmgr.o(i.GAP_DeviceDiscoveryRequest) for GAP_DeviceDiscoveryRequest
    multi.o(.text.GAPObserverRole_StartDiscovery) refers to multi.o(.bss..L_MergedGlobals.2) for [Anonymous Symbol]
    multi.o(.ARM.exidx.text.GAPObserverRole_StartDiscovery) refers to multi.o(.text.GAPObserverRole_StartDiscovery) for [Anonymous Symbol]
    multi.o(.text.GAPObserverRole_CancelDiscovery) refers to gap_centdevmgr.o(i.GAP_DeviceDiscoveryCancel) for GAP_DeviceDiscoveryCancel
    multi.o(.text.GAPObserverRole_CancelDiscovery) refers to multi.o(.bss..L_MergedGlobals.2) for [Anonymous Symbol]
    multi.o(.ARM.exidx.text.GAPObserverRole_CancelDiscovery) refers to multi.o(.text.GAPObserverRole_CancelDiscovery) for [Anonymous Symbol]
    multi.o(.text.GAPObserverRole_Init) refers to gap_task.o(i.GAP_RegisterForHCIMsgs) for GAP_RegisterForHCIMsgs
    multi.o(.text.GAPObserverRole_Init) refers to multi.o(.bss..L_MergedGlobals.2) for [Anonymous Symbol]
    multi.o(.ARM.exidx.text.GAPObserverRole_Init) refers to multi.o(.text.GAPObserverRole_Init) for [Anonymous Symbol]
    multi.o(.text.GAPObserverRole_ProcessEvent) refers to multi.o(.bss..L_MergedGlobals.2) for [Anonymous Symbol]
    multi.o(.ARM.exidx.text.GAPObserverRole_ProcessEvent) refers to multi.o(.text.GAPObserverRole_ProcessEvent) for [Anonymous Symbol]
    multi.o(.text.GAPMultiRole_StartDevice) refers to gap.o(.text.GAP_DeviceInit) for GAP_DeviceInit
    multi.o(.text.GAPMultiRole_StartDevice) refers to multi.o(.bss..L_MergedGlobals.2) for [Anonymous Symbol]
    multi.o(.ARM.exidx.text.GAPMultiRole_StartDevice) refers to multi.o(.text.GAPMultiRole_StartDevice) for [Anonymous Symbol]
    multi.o(.text.GAPMultiRole_SetParameter) refers to multi.o(.text.GAPRole_SetParameter) for GAPRole_SetParameter
    multi.o(.text.GAPMultiRole_SetParameter) refers to multi.o(.bss..L_MergedGlobals.2) for [Anonymous Symbol]
    multi.o(.ARM.exidx.text.GAPMultiRole_SetParameter) refers to multi.o(.text.GAPMultiRole_SetParameter) for [Anonymous Symbol]
    multi.o(.text.GAPMultiRole_GetParameter) refers to multi.o(.text.GAPRole_GetParameter) for GAPRole_GetParameter
    multi.o(.text.GAPMultiRole_GetParameter) refers to multi.o(.bss..L_MergedGlobals.2) for [Anonymous Symbol]
    multi.o(.ARM.exidx.text.GAPMultiRole_GetParameter) refers to multi.o(.text.GAPMultiRole_GetParameter) for [Anonymous Symbol]
    multi.o(.text.GAPMultiRole_StartDiscovery) refers to gap_centdevmgr.o(i.GAP_DeviceDiscoveryRequest) for GAP_DeviceDiscoveryRequest
    multi.o(.text.GAPMultiRole_StartDiscovery) refers to multi.o(.bss..L_MergedGlobals.2) for [Anonymous Symbol]
    multi.o(.ARM.exidx.text.GAPMultiRole_StartDiscovery) refers to multi.o(.text.GAPMultiRole_StartDiscovery) for [Anonymous Symbol]
    multi.o(.text.GAPMultiRole_CancelDiscovery) refers to gap_centdevmgr.o(i.GAP_DeviceDiscoveryCancel) for GAP_DeviceDiscoveryCancel
    multi.o(.text.GAPMultiRole_CancelDiscovery) refers to multi.o(.bss..L_MergedGlobals.2) for [Anonymous Symbol]
    multi.o(.ARM.exidx.text.GAPMultiRole_CancelDiscovery) refers to multi.o(.text.GAPMultiRole_CancelDiscovery) for [Anonymous Symbol]
    multi.o(.text.GAPMultiRole_Init) refers to gap_task.o(i.GAP_RegisterForHCIMsgs) for GAP_RegisterForHCIMsgs
    multi.o(.text.GAPMultiRole_Init) refers to multi.o(.bss..L_MergedGlobals.2) for [Anonymous Symbol]
    multi.o(.ARM.exidx.text.GAPMultiRole_Init) refers to multi.o(.text.GAPMultiRole_Init) for [Anonymous Symbol]
    multi.o(.text.GAPMultiRole_ProcessEvent) refers to multi.o(.text.gapRole_ProcessGAPMsg) for gapRole_ProcessGAPMsg
    multi.o(.text.GAPMultiRole_ProcessEvent) refers to gap_peridevmgr.o(i.GAP_MakeDiscoverable) for GAP_MakeDiscoverable
    multi.o(.text.GAPMultiRole_ProcessEvent) refers to multi.o(.bss..L_MergedGlobals.2) for [Anonymous Symbol]
    multi.o(.text.GAPMultiRole_ProcessEvent) refers to multi.o(.data..L_MergedGlobals) for [Anonymous Symbol]
    multi.o(.ARM.exidx.text.GAPMultiRole_ProcessEvent) refers to multi.o(.text.GAPMultiRole_ProcessEvent) for [Anonymous Symbol]
    multi.o(.text.gapRole_ProcessGAPMsg) refers to gap_peridevmgr.o(i.GAP_UpdateAdvertisingData) for GAP_UpdateAdvertisingData
    multi.o(.text.gapRole_ProcessGAPMsg) refers to multi.o(.data..L_MergedGlobals) for [Anonymous Symbol]
    multi.o(.text.gapRole_ProcessGAPMsg) refers to multi.o(.bss..L_MergedGlobals.2) for [Anonymous Symbol]
    multi.o(.ARM.exidx.text.gapRole_ProcessGAPMsg) refers to multi.o(.text.gapRole_ProcessGAPMsg) for [Anonymous Symbol]
    startup_armcm0.o(RESET) refers to startup_armcm0.o(STACK) for __initial_sp
    startup_armcm0.o(RESET) refers to startup_armcm0.o(.text) for Reset_Handler
    startup_armcm0.o(.text) refers to system_armcm0.o(.text.SystemInit) for SystemInit
    startup_armcm0.o(.text) refers to entry.o(.ARM.Collect$$$$00000000) for __main
    system_armcm0.o(.text.SystemCoreClockUpdate) refers to system_armcm0.o(.data.SystemCoreClock) for SystemCoreClock
    system_armcm0.o(.ARM.exidx.text.SystemCoreClockUpdate) refers to system_armcm0.o(.text.SystemCoreClockUpdate) for [Anonymous Symbol]
    system_armcm0.o(.text.SystemInit) refers to system_armcm0.o(.data.SystemCoreClock) for SystemCoreClock
    system_armcm0.o(.ARM.exidx.text.SystemInit) refers to system_armcm0.o(.text.SystemInit) for [Anonymous Symbol]
    patch.o(_section_xip_code_) refers to patch.o(.data) for .data
    patch.o(_section_xip_code_) refers to startup_armcm0.o(STACK) for __initial_sp
    patch.o(_section_xip_code_) refers to main.o(.bss.g_clk32K_config) for g_clk32K_config
    patch.o(_section_xip_code_) refers to patch.o(i.ll_hw_go1) for ll_hw_go1
    patch.o(_section_xip_code_) refers to patch.o(i.LL_IRQHandler1) for LL_IRQHandler1
    patch.o(_section_xip_code_) refers to rf_phy_driver.o(i.rf_calibrate1) for rf_calibrate1
    patch.o(_section_xip_code_) refers to rf_phy_driver.o(i.rf_phy_change_cfg0) for rf_phy_change_cfg0
    patch.o(_section_xip_code_) refers to patch.o(i.LL_ENC_AES128_Encrypt1) for LL_ENC_AES128_Encrypt1
    patch.o(_section_xip_code_) refers to patch.o(i.LL_ENC_Encrypt1) for LL_ENC_Encrypt1
    patch.o(_section_xip_code_) refers to patch.o(i.LL_ENC_Decrypt1) for LL_ENC_Decrypt1
    patch.o(_section_xip_code_) refers to patch.o(i.enterSleepProcess1) for enterSleepProcess1
    patch.o(_section_xip_code_) refers to patch.o(i.config_RTC1) for config_RTC1
    patch.o(_section_xip_code_) refers to patch.o(i.wakeup_init1) for wakeup_init1
    patch.o(_section_xip_code_) refers to patch.o(i.wakeupProcess1) for wakeupProcess1
    patch.o(_section_xip_code_) refers to l2cap_util.o(_section_sram_code_) for l2capPocessFragmentTxData
    patch.o(_section_xip_code_) refers to patch.o(i.LL_SetDataLengh1) for LL_SetDataLengh1
    patch.o(_section_xip_code_) refers to patch.o(i.llProcessTxData1) for llProcessTxData1
    patch.o(_section_xip_code_) refers to patch.o(i.ll_generateTxBuffer1) for ll_generateTxBuffer1
    patch.o(_section_xip_code_) refers to patch.o(i.ll_adptive_adj_next_time1) for ll_adptive_adj_next_time1
    patch.o(_section_xip_code_) refers to patch.o(i.llConnTerminate1) for llConnTerminate1
    patch.o(_section_xip_code_) refers to patch.o(i.LL_set_default_conn_params1) for LL_set_default_conn_params1
    patch.o(_section_xip_code_) refers to patch.o(.bss) for .bss
    patch.o(_section_xip_code_) refers to phy_sec_ext.o(.data) for s_company_id
    patch.o(i.HCI_LE_ConnUpdateCmd) refers to patch.o(i.LL_ConnUpdate1) for LL_ConnUpdate1
    patch.o(i.HCI_LE_LtkReqNegReplyCmd) refers to patch.o(i.LL_EncLtkNegReply) for LL_EncLtkNegReply
    patch.o(i.HCI_LE_LtkReqReplyCmd) refers to patch.o(i.LL_EncLtkReply) for LL_EncLtkReply
    patch.o(i.LL_CreateConn1) refers to patch.o(.data) for .data
    patch.o(i.LL_IRQHandler1) refers to patch.o(i.ll_processBasicIRQ_SRX) for ll_processBasicIRQ_SRX
    patch.o(i.LL_IRQHandler1) refers to patch.o(i.ll_processBasicIRQ_secondaryAdvTRX) for ll_processBasicIRQ_secondaryAdvTRX
    patch.o(i.LL_IRQHandler1) refers to patch.o(i.ll_processBasicIRQ_ScanTRX) for ll_processBasicIRQ_ScanTRX
    patch.o(i.LL_IRQHandler1) refers to patch.o(i.ll_processBasicIRQ_secondaryScanSRX) for ll_processBasicIRQ_secondaryScanSRX
    patch.o(i.LL_IRQHandler1) refers to patch.o(i.ll_processBasicIRQ_secondaryInitSRX) for ll_processBasicIRQ_secondaryInitSRX
    patch.o(i.LL_PLUS_GetCurrentRSSI) refers to rf_phy_driver.o(i.rf_phy_get_pktFoot) for rf_phy_get_pktFoot
    patch.o(i.LL_PLUS_LoadMACFromChipMAddr) refers to flash.o(.text.check_chip_mAddr) for check_chip_mAddr
    patch.o(i.LL_PLUS_LoadMACFromChipMAddr) refers to flash.o(.bss.g_chipMAddr) for g_chipMAddr
    patch.o(i.LL_SetAdvControl1) refers to patch.o(.data) for .data
    patch.o(i.LL_SetScanControl1) refers to patch.o(.data) for .data
    patch.o(i.LL_set_default_conn_params1) refers to patch.o(.data) for .data
    patch.o(i.check_16MXtal_by_rcTracking) refers to pwrmgr.o(_section_sram_code_) for hal_pwrmgr_enter_sleep_rtc_reset
    patch.o(i.check_16MXtal_by_rcTracking) refers to patch.o(.data) for .data
    patch.o(i.check_96MXtal_by_rcTracking) refers to patch.o(.data) for .data
    patch.o(i.enterSleepProcess1) refers to patch.o(i.rc32k_cap_cal) for rc32k_cap_cal
    patch.o(i.enterSleepProcess1) refers to patch.o(.data) for .data
    patch.o(i.hal_rom_boot_init) refers to phy_sec_ext.o(i._rom_sec_boot_init) for _rom_sec_boot_init
    patch.o(i.llCalcMaxScanTime1) refers to patch.o(i.read_LL_remainder_time1) for read_LL_remainder_time1
    patch.o(i.llCalcMaxScanTime1) refers to patch.o(.data) for .data
    patch.o(i.llProcessMasterControlProcedures1) refers to patch.o(i.llSetupStartEncRsp) for llSetupStartEncRsp
    patch.o(i.llProcessSlaveControlProcedures1) refers to patch.o(i.llSetupStartEncRsp) for llSetupStartEncRsp
    patch.o(i.llSecAdvAllow1) refers to patch.o(i.read_LL_remainder_time1) for read_LL_remainder_time1
    patch.o(i.llSecAdvAllow1) refers to patch.o(.data) for .data
    patch.o(i.llSetupNextSlaveEvent1) refers to patch.o(.data) for .data
    patch.o(i.llSetupSecAdvEvt1) refers to rf_phy_driver.o(i.rf_phy_change_cfg0) for rf_phy_change_cfg0
    patch.o(i.llSetupSecScan1) refers to rf_phy_driver.o(i.rf_phy_change_cfg0) for rf_phy_change_cfg0
    patch.o(i.ll_adptive_adj_next_time1) refers to patch.o(.data) for .data
    patch.o(i.ll_hw_go1) refers to patch.o(.data) for .data
    patch.o(i.ll_patch_master) refers to patch.o(i.LL_SetAdvParam1) for LL_SetAdvParam1
    patch.o(i.ll_patch_master) refers to patch.o(i.LL_SetAdvControl1) for LL_SetAdvControl1
    patch.o(i.ll_patch_master) refers to patch.o(i.llMasterEvt_TaskEndOk1) for llMasterEvt_TaskEndOk1
    patch.o(i.ll_patch_master) refers to patch.o(i.LL_SetScanParam1) for LL_SetScanParam1
    patch.o(i.ll_patch_master) refers to patch.o(i.LL_SetScanControl1) for LL_SetScanControl1
    patch.o(i.ll_patch_master) refers to patch.o(i.LL_CreateConn1) for LL_CreateConn1
    patch.o(i.ll_patch_master) refers to patch.o(i.LL_StartEncrypt1) for LL_StartEncrypt1
    patch.o(i.ll_patch_master) refers to patch.o(i.LL_ENC_Decrypt1) for LL_ENC_Decrypt1
    patch.o(i.ll_patch_master) refers to patch.o(i.llProcessMasterControlProcedures1) for llProcessMasterControlProcedures1
    patch.o(i.ll_patch_master) refers to patch.o(i.llProcessSlaveControlProcedures1) for llProcessSlaveControlProcedures1
    patch.o(i.ll_patch_master) refers to patch.o(i.ll_processBasicIRQ_SRX0) for ll_processBasicIRQ_SRX0
    patch.o(i.ll_patch_master) refers to patch.o(i.ll_processBasicIRQ_ScanTRX0) for ll_processBasicIRQ_ScanTRX0
    patch.o(i.ll_patch_master) refers to patch.o(i.llSetupSecScan1) for llSetupSecScan1
    patch.o(i.ll_patch_multi) refers to patch.o(i.ll_patch_slave) for ll_patch_slave
    patch.o(i.ll_patch_multi) refers to patch.o(i.ll_patch_master) for ll_patch_master
    patch.o(i.ll_patch_multi) refers to patch.o(i.ll_scheduler1) for ll_scheduler1
    patch.o(i.ll_patch_multi) refers to patch.o(i.ll_processBasicIRQ_secondaryAdvTRX0) for ll_processBasicIRQ_secondaryAdvTRX0
    patch.o(i.ll_patch_multi) refers to patch.o(i.ll_processBasicIRQ_secondaryScanSRX0) for ll_processBasicIRQ_secondaryScanSRX0
    patch.o(i.ll_patch_multi) refers to patch.o(i.ll_processBasicIRQ_secondaryInitSRX0) for ll_processBasicIRQ_secondaryInitSRX0
    patch.o(i.ll_patch_slave) refers to patch.o(i.LL_SetAdvParam1) for LL_SetAdvParam1
    patch.o(i.ll_patch_slave) refers to patch.o(i.llCalcMaxScanTime1) for llCalcMaxScanTime1
    patch.o(i.ll_patch_slave) refers to patch.o(i.llSecAdvAllow1) for llSecAdvAllow1
    patch.o(i.ll_patch_slave) refers to patch.o(i.LL_SetAdvControl1) for LL_SetAdvControl1
    patch.o(i.ll_patch_slave) refers to patch.o(i.llSetupSecAdvEvt1) for llSetupSecAdvEvt1
    patch.o(i.ll_patch_slave) refers to patch.o(i.ll_scheduler2) for ll_scheduler2
    patch.o(i.ll_patch_slave) refers to patch.o(i.llSetupNextSlaveEvent1) for llSetupNextSlaveEvent1
    patch.o(i.ll_processBasicIRQ_SRX0) refers to patch.o(i.ll_hw_read_rfifo1) for ll_hw_read_rfifo1
    patch.o(i.ll_processBasicIRQ_SRX0) refers to patch.o(.data) for .data
    patch.o(i.ll_processBasicIRQ_ScanTRX0) refers to patch.o(i.ll_hw_read_rfifo1) for ll_hw_read_rfifo1
    patch.o(i.ll_processBasicIRQ_ScanTRX0) refers to patch.o(i.llAdjBoffUpperLimitFailure1) for llAdjBoffUpperLimitFailure1
    patch.o(i.ll_processBasicIRQ_secondaryAdvTRX0) refers to patch.o(.data) for .data
    patch.o(i.ll_processBasicIRQ_secondaryInitSRX0) refers to patch.o(i.ll_hw_read_rfifo1) for ll_hw_read_rfifo1
    patch.o(i.ll_processBasicIRQ_secondaryInitSRX0) refers to patch.o(.data) for .data
    patch.o(i.ll_processBasicIRQ_secondaryScanSRX0) refers to patch.o(i.ll_hw_read_rfifo1) for ll_hw_read_rfifo1
    patch.o(i.ll_processBasicIRQ_secondaryScanSRX0) refers to patch.o(.data) for .data
    patch.o(i.ll_scheduler1) refers to patch.o(.data) for .data
    patch.o(i.ll_scheduler2) refers to patch.o(.data) for .data
    patch.o(i.osal_memory_statics) refers to main.o(.bss.g_largeHeap) for g_largeHeap
    patch.o(i.wakeupProcess1) refers to patch.o(i.wakeup_init1) for wakeup_init1
    patch.o(i.wakeupProcess1) refers to rf_phy_driver.o(i.rf_phy_ini) for rf_phy_ini
    patch.o(i.wakeupProcess1) refers to patch.o(.data) for .data
    patch.o(i.wakeup_init1) refers to phy_sec_ext.o(i.efuse_init) for efuse_init
    patch.o(i.wakeup_init1) refers to patch.o(i.__wdt_init) for __wdt_init
    patch.o(i.wakeup_init1) refers to patch.o(i.check_16MXtal_by_rcTracking) for check_16MXtal_by_rcTracking
    patch.o(i.wakeup_init1) refers to patch.o(i.check_96MXtal_by_rcTracking) for check_96MXtal_by_rcTracking
    patch.o(i.wakeup_init1) refers to patch.o(i.NVIC_EnableIRQ) for NVIC_EnableIRQ
    patch.o(i.wakeup_init1) refers to patch.o(.data) for .data
    rf_phy_driver.o(i.DTM_UART_IRQHandler) refers to rf_phy_driver.o(.data) for .data
    rf_phy_driver.o(i.DTM_UART_IRQHandler) refers to rf_phy_driver.o(.bss) for .bss
    rf_phy_driver.o(i.rf_calibrate1) refers to rf_phy_driver.o(i.rf_tpCal_gen_cap_arrary) for rf_tpCal_gen_cap_arrary
    rf_phy_driver.o(i.rf_calibrate1) refers to rf_phy_driver.o(i.rf_rxDcoc_cfg) for rf_rxDcoc_cfg
    rf_phy_driver.o(i.rf_calibrate1) refers to rf_phy_driver.o(i.rc32k_calibration) for rc32k_calibration
    rf_phy_driver.o(i.rf_phy_direct_test) refers to my_printf.o(.text.dbg_printf_init) for dbg_printf_init
    rf_phy_driver.o(i.rf_phy_direct_test) refers to my_printf.o(.text.dbg_printf) for dbg_printf
    rf_phy_driver.o(i.rf_phy_direct_test) refers to rf_phy_driver.o(i.rf_phy_dtm_cmd_parse) for rf_phy_dtm_cmd_parse
    rf_phy_driver.o(i.rf_phy_direct_test) refers to rf_phy_driver.o(i.rf_phy_dtm_evt_send) for rf_phy_dtm_evt_send
    rf_phy_driver.o(i.rf_phy_direct_test) refers to rf_phy_driver.o(i.rf_phy_dtm_trigged) for rf_phy_dtm_trigged
    rf_phy_driver.o(i.rf_phy_direct_test) refers to rf_phy_driver.o(i.rf_phy_get_pktFoot) for rf_phy_get_pktFoot
    rf_phy_driver.o(i.rf_phy_direct_test) refers to clock.o(.text.WaitUs) for WaitUs
    rf_phy_driver.o(i.rf_phy_direct_test) refers to rf_phy_driver.o(i.DTM_UART_IRQHandler) for DTM_UART_IRQHandler
    rf_phy_driver.o(i.rf_phy_direct_test) refers to rf_phy_driver.o(.data) for .data
    rf_phy_driver.o(i.rf_phy_direct_test) refers to rf_phy_driver.o(.bss) for .bss
    rf_phy_driver.o(i.rf_phy_dtm_ble_pkt_gen) refers to rf_phy_driver.o(i.gen_pn_prbs9) for gen_pn_prbs9
    rf_phy_driver.o(i.rf_phy_dtm_cmd_parse) refers to gpio.o(.text.hal_gpio_pin2pin3_control) for hal_gpio_pin2pin3_control
    rf_phy_driver.o(i.rf_phy_dtm_cmd_parse) refers to rf_phy_driver.o(.data) for .data
    rf_phy_driver.o(i.rf_phy_dtm_evt_send) refers to uart.o(.text.hal_uart_send_byte) for hal_uart_send_byte
    rf_phy_driver.o(i.rf_phy_dtm_ext_rx_demod_burst) refers to rf_phy_driver.o(i.rf_phy_dtm_init) for rf_phy_dtm_init
    rf_phy_driver.o(i.rf_phy_dtm_ext_rx_demod_burst) refers to rf_phy_driver.o(i.rf_phy_dtm_trigged) for rf_phy_dtm_trigged
    rf_phy_driver.o(i.rf_phy_dtm_ext_rx_demod_burst) refers to clock.o(.text.hal_systick) for hal_systick
    rf_phy_driver.o(i.rf_phy_dtm_ext_rx_demod_burst) refers to rf_phy_driver.o(i.rf_phy_get_pktFoot) for rf_phy_get_pktFoot
    rf_phy_driver.o(i.rf_phy_dtm_ext_rx_demod_burst) refers to clock.o(.text.hal_ms_intv) for hal_ms_intv
    rf_phy_driver.o(i.rf_phy_dtm_ext_rx_demod_burst) refers to rf_phy_driver.o(i.rf_phy_dtm_stop) for rf_phy_dtm_stop
    rf_phy_driver.o(i.rf_phy_dtm_ext_tx_mod_burst) refers to rf_phy_driver.o(i.rf_phy_dtm_init) for rf_phy_dtm_init
    rf_phy_driver.o(i.rf_phy_dtm_ext_tx_mod_burst) refers to rf_phy_driver.o(i.rf_phy_dtm_trigged) for rf_phy_dtm_trigged
    rf_phy_driver.o(i.rf_phy_dtm_ext_tx_mod_burst) refers to rf_phy_driver.o(i.rf_phy_dtm_stop) for rf_phy_dtm_stop
    rf_phy_driver.o(i.rf_phy_dtm_ext_tx_modulation) refers to rf_phy_driver.o(i.rf_phy_dtm_init) for rf_phy_dtm_init
    rf_phy_driver.o(i.rf_phy_dtm_ext_tx_modulation) refers to rf_phy_driver.o(i.rf_phy_dtm_trigged) for rf_phy_dtm_trigged
    rf_phy_driver.o(i.rf_phy_dtm_ext_tx_modulation) refers to clock.o(.text.WaitUs) for WaitUs
    rf_phy_driver.o(i.rf_phy_dtm_ext_tx_modulation) refers to rf_phy_driver.o(i.rf_phy_dtm_stop) for rf_phy_dtm_stop
    rf_phy_driver.o(i.rf_phy_dtm_ext_tx_singleTone) refers to rf_phy_driver.o(i.rf_phy_dtm_init) for rf_phy_dtm_init
    rf_phy_driver.o(i.rf_phy_dtm_ext_tx_singleTone) refers to rf_phy_driver.o(i.rf_phy_dtm_trigged) for rf_phy_dtm_trigged
    rf_phy_driver.o(i.rf_phy_dtm_ext_tx_singleTone) refers to clock.o(.text.WaitUs) for WaitUs
    rf_phy_driver.o(i.rf_phy_dtm_ext_tx_singleTone) refers to rf_phy_driver.o(i.rf_phy_dtm_stop) for rf_phy_dtm_stop
    rf_phy_driver.o(i.rf_phy_dtm_trigged) refers to rf_phy_driver.o(i.rf_phy_ana_cfg) for rf_phy_ana_cfg
    rf_phy_driver.o(i.rf_phy_dtm_trigged) refers to rf_phy_driver.o(i.rf_rxDcoc_cfg) for rf_rxDcoc_cfg
    rf_phy_driver.o(i.rf_phy_dtm_trigged) refers to rf_phy_driver.o(i.rf_phy_ini) for rf_phy_ini
    rf_phy_driver.o(i.rf_phy_dtm_trigged) refers to rf_phy_driver.o(i.rf_tpCal_cfg_avg) for rf_tpCal_cfg_avg
    rf_phy_driver.o(i.rf_phy_dtm_trigged) refers to rf_phy_driver.o(i.rf_phy_set_txPower) for rf_phy_set_txPower
    rf_phy_driver.o(i.rf_phy_dtm_trigged) refers to rf_phy_driver.o(i.rf_phy_dtm_ble_pkt_gen) for rf_phy_dtm_ble_pkt_gen
    rf_phy_driver.o(i.rf_phy_dtm_trigged) refers to rf_phy_driver.o(i.rf_phy_dtm_zigbee_pkt_gen) for rf_phy_dtm_zigbee_pkt_gen
    rf_phy_driver.o(i.rf_phy_ini) refers to rf_phy_driver.o(i.rf_phy_ana_cfg) for rf_phy_ana_cfg
    rf_phy_driver.o(i.rf_phy_ini) refers to rf_phy_driver.o(i.rf_phy_set_txPower) for rf_phy_set_txPower
    rf_phy_driver.o(i.rf_phy_ini) refers to rf_phy_driver.o(i.rf_phy_bb_cfg) for rf_phy_bb_cfg
    rf_phy_driver.o(i.rf_tpCal_cfg) refers to rf_phy_driver.o(i.rf_tp_cal) for rf_tp_cal
    rf_phy_driver.o(i.rf_tpCal_cfg_avg) refers to rf_phy_driver.o(i.rf_tp_cal) for rf_tp_cal
    rf_phy_driver.o(i.rf_tpCal_gen_cap_arrary) refers to rf_phy_driver.o(i.rf_tp_cal) for rf_tp_cal
    gap_centdevmgr.o(i.GAP_CentConnRegister) refers to gap_linkmgr.o(i.gapRegisterCentralConn) for gapRegisterCentralConn
    gap_centdevmgr.o(i.GAP_CentConnRegister) refers to gap_configmgr.o(.data) for gapProfileRole
    gap_centdevmgr.o(i.GAP_CentConnRegister) refers to gap_centdevmgr.o(.data) for .data
    gap_centdevmgr.o(i.GAP_CentDevMgrInit) refers to gap_centdevmgr.o(i.gapFreeScanRecs) for gapFreeScanRecs
    gap_centdevmgr.o(i.GAP_CentDevMgrInit) refers to gap_task.o(i.gapRegisterCentral) for gapRegisterCentral
    gap_centdevmgr.o(i.GAP_CentDevMgrInit) refers to gap_centdevmgr.o(i.gapAllocScanRecs) for gapAllocScanRecs
    gap_centdevmgr.o(i.GAP_CentDevMgrInit) refers to gap_centdevmgr.o(.data) for .data
    gap_centdevmgr.o(i.GAP_CentDevMgrInit) refers to gap_configmgr.o(.data) for gapProfileRole
    gap_centdevmgr.o(i.GAP_DeviceDiscoveryCancel) refers to gap_centdevmgr.o(i.gapSendDevDiscEvent) for gapSendDevDiscEvent
    gap_centdevmgr.o(i.GAP_DeviceDiscoveryCancel) refers to gap_centdevmgr.o(i.gapSendScanEnable) for gapSendScanEnable
    gap_centdevmgr.o(i.GAP_DeviceDiscoveryCancel) refers to gap_devmgr.o(.data) for pGapDiscReq
    gap_centdevmgr.o(i.GAP_DeviceDiscoveryCancel) refers to gap_task.o(.data) for gapTaskID
    gap_centdevmgr.o(i.GAP_DeviceDiscoveryRequest) refers to gap_task.o(i.GAP_NumActiveConnections) for GAP_NumActiveConnections
    gap_centdevmgr.o(i.GAP_DeviceDiscoveryRequest) refers to gap_configmgr.o(i.GAP_GetParamValue) for GAP_GetParamValue
    gap_centdevmgr.o(i.GAP_DeviceDiscoveryRequest) refers to gap_devmgr.o(.data) for pGapDiscReq
    gap_centdevmgr.o(i.GAP_DeviceDiscoveryRequest) refers to gap_configmgr.o(.data) for gapProfileRole
    gap_centdevmgr.o(i.gapAllocScanRecs) refers to gap_centdevmgr.o(.data) for .data
    gap_centdevmgr.o(i.gapCentProcessHCICmdEvt) refers to gap_centdevmgr.o(i.gapSetScanParamStatus) for gapSetScanParamStatus
    gap_centdevmgr.o(i.gapFindScanRec) refers to gap_centdevmgr.o(.data) for .data
    gap_centdevmgr.o(i.gapFreeScanRecs) refers to gap_centdevmgr.o(.data) for .data
    gap_centdevmgr.o(i.gapProcessAdvertDevInfo) refers to gap_devmgr.o(i.gapFindADType) for gapFindADType
    gap_centdevmgr.o(i.gapProcessAdvertDevInfo) refers to gap_configmgr.o(i.gapDetermineAddrType) for gapDetermineAddrType
    gap_centdevmgr.o(i.gapProcessAdvertDevInfo) refers to gap_centdevmgr.o(i.gapFindScanRec) for gapFindScanRec
    gap_centdevmgr.o(i.gapProcessAdvertDevInfo) refers to gap_devmgr.o(.data) for pGapDiscReq
    gap_centdevmgr.o(i.gapProcessAdvertDevInfo) refers to patch.o(.data) for pGlobal_config
    gap_centdevmgr.o(i.gapProcessAdvertDevInfo) refers to gap_centdevmgr.o(.data) for .data
    gap_centdevmgr.o(i.gapProcessConnEvt) refers to gap_centlinkmgr.o(i.gapProcessL2CAPSignalEvt) for gapProcessL2CAPSignalEvt
    gap_centdevmgr.o(i.gapProcessConnEvt) refers to gap_centlinkmgr.o(i.gapTerminateConnComplete) for gapTerminateConnComplete
    gap_centdevmgr.o(i.gapProcessConnEvt) refers to gap_centlinkmgr.o(i.gapProcessCreateLLConnCmdStatus) for gapProcessCreateLLConnCmdStatus
    gap_centdevmgr.o(i.gapProcessConnEvt) refers to gap_centlinkmgr.o(i.gapProcessConnUpdateCmdStatus) for gapProcessConnUpdateCmdStatus
    gap_centdevmgr.o(i.gapProcessScanningEvt) refers to gap_configmgr.o(i.GAP_GetParamValue) for GAP_GetParamValue
    gap_centdevmgr.o(i.gapProcessScanningEvt) refers to gap_centdevmgr.o(i.gapSendDevDiscEvent) for gapSendDevDiscEvent
    gap_centdevmgr.o(i.gapProcessScanningEvt) refers to gap_centdevmgr.o(i.gapSendScanEnable) for gapSendScanEnable
    gap_centdevmgr.o(i.gapProcessScanningEvt) refers to gap_centdevmgr.o(i.gapProcessAdvertDevInfo) for gapProcessAdvertDevInfo
    gap_centdevmgr.o(i.gapProcessScanningEvt) refers to gap_centdevmgr.o(i.gapSendDeviceInfoEvent) for gapSendDeviceInfoEvent
    gap_centdevmgr.o(i.gapProcessScanningEvt) refers to gap_devmgr.o(.data) for pGapDiscReq
    gap_centdevmgr.o(i.gapSendDevDiscEvent) refers to gap_centdevmgr.o(i.gapFreeScanRecs) for gapFreeScanRecs
    gap_centdevmgr.o(i.gapSendDevDiscEvent) refers to gap_devmgr.o(.data) for pGapDiscReq
    gap_centdevmgr.o(i.gapSendDevDiscEvent) refers to gap_centdevmgr.o(.data) for .data
    gap_centdevmgr.o(i.gapSendDeviceInfoEvent) refers to gap_devmgr.o(.data) for pGapDiscReq
    gap_centdevmgr.o(i.gapSendScanEnable) refers to gap_configmgr.o(i.GAP_GetParamValue) for GAP_GetParamValue
    gap_centdevmgr.o(i.gapSetScanParamStatus) refers to gap_configmgr.o(i.GAP_GetParamValue) for GAP_GetParamValue
    gap_centdevmgr.o(i.gapSetScanParamStatus) refers to gap_centdevmgr.o(i.gapSendScanEnable) for gapSendScanEnable
    gap_centdevmgr.o(i.gapSetScanParamStatus) refers to gap_centdevmgr.o(i.gapSendDevDiscEvent) for gapSendDevDiscEvent
    gap_centdevmgr.o(i.gapSetScanParamStatus) refers to gap_devmgr.o(.data) for pGapDiscReq
    gap_centdevmgr.o(i.gapSetScanParamStatus) refers to gap_task.o(.data) for gapTaskID
    gap_centdevmgr.o(.data) refers to gap_centdevmgr.o(i.gapCentProcessHCICmdEvt) for gapCentProcessHCICmdEvt
    gap_centdevmgr.o(.data) refers to gap_centdevmgr.o(i.gapProcessScanningEvt) for gapProcessScanningEvt
    gap_centdevmgr.o(.data) refers to gap_centlinkmgr.o(i.gapCancelLinkReq) for gapCancelLinkReq
    gap_centdevmgr.o(.data) refers to gap_centdevmgr.o(i.gapProcessConnEvt) for gapProcessConnEvt
    gap_configmgr.o(i.GAP_ConfigDeviceAddr) refers to gap_task.o(i.GAP_NumActiveConnections) for GAP_NumActiveConnections
    gap_configmgr.o(i.GAP_ConfigDeviceAddr) refers to gap_devmgr.o(i.gapIsAdvertising) for gapIsAdvertising
    gap_configmgr.o(i.GAP_ConfigDeviceAddr) refers to gap_devmgr.o(i.gapIsScanning) for gapIsScanning
    gap_configmgr.o(i.GAP_ConfigDeviceAddr) refers to sm_mgr.o(i.smGenerateRandBuf) for smGenerateRandBuf
    gap_configmgr.o(i.GAP_ConfigDeviceAddr) refers to sm_mgr.o(i.SM_CalcRandomAddr) for SM_CalcRandomAddr
    gap_configmgr.o(i.GAP_ConfigDeviceAddr) refers to gap_configmgr.o(i.gapProcessNewAddr) for gapProcessNewAddr
    gap_configmgr.o(i.GAP_ConfigDeviceAddr) refers to gap_configmgr.o(i.GAP_GetParamValue) for GAP_GetParamValue
    gap_configmgr.o(i.GAP_ConfigDeviceAddr) refers to gap_configmgr.o(.data) for .data
    gap_configmgr.o(i.GAP_ConfigDeviceAddr) refers to gap_configmgr.o(.bss) for .bss
    gap_configmgr.o(i.GAP_ConfigDeviceAddr) refers to gap_task.o(.data) for gapTaskID
    gap_configmgr.o(i.GAP_GetParamValue) refers to gap_configmgr.o(.data) for .data
    gap_configmgr.o(i.GAP_ParamsInit) refers to gap_configmgr.o(.bss) for .bss
    gap_configmgr.o(i.GAP_ParamsInit) refers to gap_configmgr.o(.data) for .data
    gap_configmgr.o(i.GAP_SecParamsInit) refers to sm_mgr.o(i.smGenerateRandBuf) for smGenerateRandBuf
    gap_configmgr.o(i.GAP_SecParamsInit) refers to gap_configmgr.o(.bss) for .bss
    gap_configmgr.o(i.GAP_SetParamValue) refers to gap_configmgr.o(.data) for .data
    gap_configmgr.o(i.gapGetDevAddress) refers to gap_configmgr.o(.bss) for .bss
    gap_configmgr.o(i.gapGetDevAddress) refers to gap_configmgr.o(.data) for .data
    gap_configmgr.o(i.gapGetDevAddressMode) refers to gap_configmgr.o(.data) for .data
    gap_configmgr.o(i.gapGetIRK) refers to gap_configmgr.o(.bss) for .bss
    gap_configmgr.o(i.gapGetSRK) refers to gap_configmgr.o(.bss) for .bss
    gap_configmgr.o(i.gapGetSignCounter) refers to gap_configmgr.o(.bss) for .bss
    gap_configmgr.o(i.gapIncSignCounter) refers to gap_configmgr.o(.bss) for .bss
    gap_configmgr.o(i.gapIncSignCounter) refers to gap_configmgr.o(.data) for .data
    gap_configmgr.o(i.gapProcessNewAddr) refers to gap_configmgr.o(i.gapAddAddrAdj) for gapAddAddrAdj
    gap_configmgr.o(i.gapProcessNewAddr) refers to gap_configmgr.o(.data) for .data
    gap_configmgr.o(i.gapProcessRandomAddrComplete) refers to gap_configmgr.o(.data) for .data
    gap_configmgr.o(i.gapProcessRandomAddrComplete) refers to gap_task.o(.data) for pfnPeripheralCBs
    gap_configmgr.o(i.gapReadBD_ADDRStatus) refers to gap_configmgr.o(i.gapSendDeviceInitDoneEvent) for gapSendDeviceInitDoneEvent
    gap_configmgr.o(i.gapReadBD_ADDRStatus) refers to gap_configmgr.o(.bss) for .bss
    gap_configmgr.o(i.gapReadBufSizeCmdStatus) refers to gap_configmgr.o(i.gapSendDeviceInitDoneEvent) for gapSendDeviceInitDoneEvent
    gap_configmgr.o(i.gapReadBufSizeCmdStatus) refers to gap_configmgr.o(.bss) for .bss
    gap_configmgr.o(i.gapSendDeviceInitDoneEvent) refers to gap_configmgr.o(.data) for .data
    gap_configmgr.o(i.gapSendDeviceInitDoneEvent) refers to gap_configmgr.o(.bss) for .bss
    gap_configmgr.o(i.gapUpdateConnSignCounter) refers to linkdb.o(i.linkDB_Find) for linkDB_Find
    gap_configmgr.o(i.gapUpdateConnSignCounter) refers to gap_configmgr.o(i.GAP_GetParamValue) for GAP_GetParamValue
    gap_peridevmgr.o(i.GAP_EndDiscoverable) refers to gap_devmgr.o(.data) for pGapAdvertState
    gap_peridevmgr.o(i.GAP_EndDiscoverable) refers to gap_task.o(.data) for gapTaskID
    gap_peridevmgr.o(i.GAP_EndDiscoverable) refers to gap_peridevmgr.o(.data) for .data
    gap_peridevmgr.o(i.GAP_EndDiscoverable) refers to gap_configmgr.o(.data) for gapPrivateAddrChangeTimeout
    gap_peridevmgr.o(i.GAP_GetAdvToken) refers to gap_peridevmgr.o(i.gapFindAdvToken) for gapFindAdvToken
    gap_peridevmgr.o(i.GAP_GetAdvToken) refers to gap_configmgr.o(.data) for gapProfileRole
    gap_peridevmgr.o(i.GAP_MakeDiscoverable) refers to gap_task.o(i.GAP_NumActiveConnections) for GAP_NumActiveConnections
    gap_peridevmgr.o(i.GAP_MakeDiscoverable) refers to gap_peridevmgr.o(i.gapSetAdvParams) for gapSetAdvParams
    gap_peridevmgr.o(i.GAP_MakeDiscoverable) refers to gap_peridevmgr.o(i.gapFreeAdvertState) for gapFreeAdvertState
    gap_peridevmgr.o(i.GAP_MakeDiscoverable) refers to gap_configmgr.o(i.GAP_GetParamValue) for GAP_GetParamValue
    gap_peridevmgr.o(i.GAP_MakeDiscoverable) refers to gap_devmgr.o(.data) for pGapAdvertState
    gap_peridevmgr.o(i.GAP_MakeDiscoverable) refers to gap_configmgr.o(.data) for gapProfileRole
    gap_peridevmgr.o(i.GAP_MakeDiscoverable) refers to gap_peridevmgr.o(.data) for .data
    gap_peridevmgr.o(i.GAP_MakeDiscoverable) refers to gap_task.o(.data) for gapTaskID
    gap_peridevmgr.o(i.GAP_PeriDevMgrInit) refers to gap_task.o(i.gapRegisterPeripheral) for gapRegisterPeripheral
    gap_peridevmgr.o(i.GAP_PeriDevMgrInit) refers to gap_peridevmgr.o(i.gapAllocAdvRecs) for gapAllocAdvRecs
    gap_peridevmgr.o(i.GAP_PeriDevMgrInit) refers to gap_peridevmgr.o(.data) for .data
    gap_peridevmgr.o(i.GAP_PeriDevMgrInit) refers to gap_configmgr.o(.data) for gapProfileRole
    gap_peridevmgr.o(i.GAP_RemoveAdvToken) refers to gap_peridevmgr.o(i.gapDeleteAdvToken) for gapDeleteAdvToken
    gap_peridevmgr.o(i.GAP_RemoveAdvToken) refers to gap_configmgr.o(.data) for gapProfileRole
    gap_peridevmgr.o(i.GAP_SetAdvToken) refers to gap_devmgr.o(i.gapValidADType) for gapValidADType
    gap_peridevmgr.o(i.GAP_SetAdvToken) refers to gap_peridevmgr.o(i.gapFindAdvToken) for gapFindAdvToken
    gap_peridevmgr.o(i.GAP_SetAdvToken) refers to gap_peridevmgr.o(i.gapCalcAdvTokenDataLen) for gapCalcAdvTokenDataLen
    gap_peridevmgr.o(i.GAP_SetAdvToken) refers to gap_peridevmgr.o(i.gapAddAdvToken) for gapAddAdvToken
    gap_peridevmgr.o(i.GAP_SetAdvToken) refers to gap_configmgr.o(.data) for gapProfileRole
    gap_peridevmgr.o(i.GAP_UpdateAdvTokens) refers to gap_peridevmgr.o(i.gapBuildADTokens) for gapBuildADTokens
    gap_peridevmgr.o(i.GAP_UpdateAdvTokens) refers to gap_configmgr.o(.data) for gapProfileRole
    gap_peridevmgr.o(i.GAP_UpdateAdvertisingData) refers to gap_configmgr.o(.data) for gapProfileRole
    gap_peridevmgr.o(i.GAP_UpdateAdvertisingData) refers to gap_peridevmgr.o(.data) for .data
    gap_peridevmgr.o(i.gapAddAdvToken) refers to gap_peridevmgr.o(.data) for .data
    gap_peridevmgr.o(i.gapAllocAdvRecs) refers to gap_configmgr.o(.data) for gapProfileRole
    gap_peridevmgr.o(i.gapAllocAdvRecs) refers to gap_peridevmgr.o(.data) for .data
    gap_peridevmgr.o(i.gapBuildADTokens) refers to gap_configmgr.o(.data) for gapProfileRole
    gap_peridevmgr.o(i.gapBuildADTokens) refers to gap_peridevmgr.o(.data) for .data
    gap_peridevmgr.o(i.gapCalcAdvTokenDataLen) refers to gap_peridevmgr.o(.data) for .data
    gap_peridevmgr.o(i.gapDeleteAdvToken) refers to gap_peridevmgr.o(.data) for .data
    gap_peridevmgr.o(i.gapFindAdvToken) refers to gap_peridevmgr.o(.data) for .data
    gap_peridevmgr.o(i.gapFreeAdvertState) refers to gap_devmgr.o(.data) for pGapAdvertState
    gap_peridevmgr.o(i.gapPeriProcessHCICmdCompleteEvt) refers to gap_peridevmgr.o(i.gapSetAdvParamsStatus) for gapSetAdvParamsStatus
    gap_peridevmgr.o(i.gapPeriProcessHCICmdCompleteEvt) refers to gap_peridevmgr.o(i.gapWriteAdvEnableStatus) for gapWriteAdvEnableStatus
    gap_peridevmgr.o(i.gapPeriProcessHCICmdCompleteEvt) refers to gap_peridevmgr.o(i.gapWriteAdvDataStatus) for gapWriteAdvDataStatus
    gap_peridevmgr.o(i.gapProcessAdvertisingEvt) refers to gap_peridevmgr.o(i.gapFreeAdvertState) for gapFreeAdvertState
    gap_peridevmgr.o(i.gapProcessAdvertisingEvt) refers to gap_peridevmgr.o(i.GAP_EndDiscoverable) for GAP_EndDiscoverable
    gap_peridevmgr.o(i.gapProcessAdvertisingEvt) refers to gap_task.o(.data) for gapTaskID
    gap_peridevmgr.o(i.gapProcessAdvertisingEvt) refers to gap_devmgr.o(.data) for pGapAdvertState
    gap_peridevmgr.o(i.gapProcessAdvertisingEvt) refers to gap_peridevmgr.o(.data) for .data
    gap_peridevmgr.o(i.gapProcessAdvertisingEvt) refers to gap_configmgr.o(.data) for gapProfileRole
    gap_peridevmgr.o(i.gapSendMakeDiscEvent) refers to gap_peridevmgr.o(i.gapFreeAdvertState) for gapFreeAdvertState
    gap_peridevmgr.o(i.gapSendMakeDiscEvent) refers to gap_devmgr.o(.data) for pGapAdvertState
    gap_peridevmgr.o(i.gapSetAdvParams) refers to gap_task.o(i.GAP_NumActiveConnections) for GAP_NumActiveConnections
    gap_peridevmgr.o(i.gapSetAdvParams) refers to gap_configmgr.o(i.GAP_GetParamValue) for GAP_GetParamValue
    gap_peridevmgr.o(i.gapSetAdvParams) refers to gap_peridevmgr.o(i.isLimitedDiscoverableMode) for isLimitedDiscoverableMode
    gap_peridevmgr.o(i.gapSetAdvParams) refers to gap_configmgr.o(i.gapAddAddrAdj) for gapAddAddrAdj
    gap_peridevmgr.o(i.gapSetAdvParams) refers to gap_devmgr.o(.data) for pGapAdvertState
    gap_peridevmgr.o(i.gapSetAdvParams) refers to gap_configmgr.o(.data) for gapDeviceAddrMode
    gap_peridevmgr.o(i.gapSetAdvParamsStatus) refers to gap_peridevmgr.o(i.gapSendMakeDiscEvent) for gapSendMakeDiscEvent
    gap_peridevmgr.o(i.gapSetAdvParamsStatus) refers to gap_devmgr.o(.data) for pGapAdvertState
    gap_peridevmgr.o(i.gapWriteAdvDataStatus) refers to gap_peridevmgr.o(.data) for .data
    gap_peridevmgr.o(i.gapWriteAdvEnableStatus) refers to gap_peridevmgr.o(i.isLimitedDiscoverableMode) for isLimitedDiscoverableMode
    gap_peridevmgr.o(i.gapWriteAdvEnableStatus) refers to gap_configmgr.o(i.GAP_GetParamValue) for GAP_GetParamValue
    gap_peridevmgr.o(i.gapWriteAdvEnableStatus) refers to gap_peridevmgr.o(i.gapSendMakeDiscEvent) for gapSendMakeDiscEvent
    gap_peridevmgr.o(i.gapWriteAdvEnableStatus) refers to gap_peridevmgr.o(i.gapFreeAdvertState) for gapFreeAdvertState
    gap_peridevmgr.o(i.gapWriteAdvEnableStatus) refers to gap_devmgr.o(.data) for pGapAdvertState
    gap_peridevmgr.o(i.gapWriteAdvEnableStatus) refers to gap_configmgr.o(.data) for gapAutoAdvPrivateAddrChange
    gap_peridevmgr.o(i.gapWriteAdvEnableStatus) refers to gap_task.o(.data) for gapTaskID
    gap_peridevmgr.o(i.gapWriteAdvEnableStatus) refers to gap_peridevmgr.o(.data) for .data
    gap_peridevmgr.o(i.isLimitedDiscoverableMode) refers to gap_devmgr.o(i.gapFindADType) for gapFindADType
    gap_peridevmgr.o(i.isLimitedDiscoverableMode) refers to gap_peridevmgr.o(.data) for .data
    gap_peridevmgr.o(.data) refers to gap_peridevmgr.o(i.gapPeriProcessHCICmdCompleteEvt) for gapPeriProcessHCICmdCompleteEvt
    gap_peridevmgr.o(.data) refers to gap_peridevmgr.o(i.gapProcessAdvertisingEvt) for gapProcessAdvertisingEvt
    gap_peridevmgr.o(.data) refers to gap_peridevmgr.o(i.gapSetAdvParams) for gapSetAdvParams
    gap_task.o(i.GAP_Init) refers to linkdb.o(i.linkDB_Init) for linkDB_Init
    gap_task.o(i.GAP_Init) refers to l2cap_if.o(i.L2CAP_RegisterApp) for L2CAP_RegisterApp
    gap_task.o(i.GAP_Init) refers to gap_task.o(.data) for .data
    gap_task.o(i.GAP_NumActiveConnections) refers to linkdb.o(i.linkDB_NumActive) for linkDB_NumActive
    gap_task.o(i.GAP_ProcessEvent) refers to gap_task.o(i.gapProcessOSALMsg) for gapProcessOSALMsg
    gap_task.o(i.GAP_ProcessEvent) refers to gap_devmgr.o(i.gapIsAdvertising) for gapIsAdvertising
    gap_task.o(i.GAP_ProcessEvent) refers to gap_configmgr.o(i.gapGetIRK) for gapGetIRK
    gap_task.o(i.GAP_ProcessEvent) refers to sm_mgr.o(i.SM_CalcRandomAddr) for SM_CalcRandomAddr
    gap_task.o(i.GAP_ProcessEvent) refers to gap_configmgr.o(i.gapProcessNewAddr) for gapProcessNewAddr
    gap_task.o(i.GAP_ProcessEvent) refers to gap_configmgr.o(i.GAP_GetParamValue) for GAP_GetParamValue
    gap_task.o(i.GAP_ProcessEvent) refers to gap_task.o(.data) for .data
    gap_task.o(i.GAP_ProcessEvent) refers to gap_configmgr.o(.data) for gapPrivateAddrChangeTimeout
    gap_task.o(i.GAP_RegisterForHCIMsgs) refers to gap_task.o(.data) for .data
    gap_task.o(i.gapProcessHCICmdCompleteEvt) refers to gap_configmgr.o(i.gapProcessRandomAddrComplete) for gapProcessRandomAddrComplete
    gap_task.o(i.gapProcessHCICmdCompleteEvt) refers to gap_configmgr.o(i.gapReadBufSizeCmdStatus) for gapReadBufSizeCmdStatus
    gap_task.o(i.gapProcessHCICmdCompleteEvt) refers to gap_configmgr.o(i.gapReadBD_ADDRStatus) for gapReadBD_ADDRStatus
    gap_task.o(i.gapProcessHCICmdCompleteEvt) refers to gap_task.o(.data) for .data
    gap_task.o(i.gapProcessHCICmdCompleteEvt) refers to gap_linkmgr.o(.data) for pfnCentralConnCBs
    gap_task.o(i.gapProcessOSALMsg) refers to gap_task.o(i.gapProcessHCICmdCompleteEvt) for gapProcessHCICmdCompleteEvt
    gap_task.o(i.gapProcessOSALMsg) refers to gap_linkmgr.o(i.gapProcessDisconnectCompleteEvt) for gapProcessDisconnectCompleteEvt
    gap_task.o(i.gapProcessOSALMsg) refers to gap_linkmgr.o(i.gapProcessConnectionCompleteEvt) for gapProcessConnectionCompleteEvt
    gap_task.o(i.gapProcessOSALMsg) refers to gap_linkmgr.o(i.gapProcessConnUpdateCompleteEvt) for gapProcessConnUpdateCompleteEvt
    gap_task.o(i.gapProcessOSALMsg) refers to l2cap_if.o(i.L2CAP_CmdReject) for L2CAP_CmdReject
    gap_task.o(i.gapProcessOSALMsg) refers to gap_linkmgr.o(.data) for pfnCentralConnCBs
    gap_task.o(i.gapProcessOSALMsg) refers to gap_task.o(.data) for .data
    gap_task.o(i.gapProcessOSALMsg) refers to gap_configmgr.o(.data) for gapProfileRole
    gap_task.o(i.gapRegisterCentral) refers to gap_task.o(.data) for .data
    gap_task.o(i.gapRegisterPeripheral) refers to gap_task.o(.data) for .data
    phy_sec_ext.o(i.PHY_Varify_Platform) refers to phy_sec_ext.o(.constdata) for .constdata
    phy_sec_ext.o(i._efuse_chip_version_check) refers to phy_sec_ext.o(i.finidv) for finidv
    phy_sec_ext.o(i._rom_sec_boot_init) refers to phy_sec_ext.o(i.efuse_init) for efuse_init
    phy_sec_ext.o(i._rom_sec_boot_init) refers to phy_sec_ext.o(i._efuse_chip_version_check) for _efuse_chip_version_check
    phy_sec_ext.o(i.finidv) refers to phy_sec_ext.o(.data) for .data
    phy_sec_ext.o(i.finidv) refers to phy_sec_ext.o(.bss) for .bss
    phy_sec_ext.o(i.verify_mic) refers to phy_sec_ext.o(i.finidv) for finidv
    phy_sec_ext.o(i.verify_mic) refers to aes.o(i.flash_load_parition) for flash_load_parition
    phy_sec_ext.o(.data) refers to phy_sec_ext.o(.conststring) for .conststring
    gap_centlinkmgr.o(i.GAP_EstablishLinkReq) refers to gap_devmgr.o(i.gapIsScanning) for gapIsScanning
    gap_centlinkmgr.o(i.GAP_EstablishLinkReq) refers to gap_task.o(i.GAP_NumActiveConnections) for GAP_NumActiveConnections
    gap_centlinkmgr.o(i.GAP_EstablishLinkReq) refers to gap_configmgr.o(i.GAP_GetParamValue) for GAP_GetParamValue
    gap_centlinkmgr.o(i.GAP_EstablishLinkReq) refers to gap_configmgr.o(i.gapAddAddrAdj) for gapAddAddrAdj
    gap_centlinkmgr.o(i.GAP_EstablishLinkReq) refers to gap_linkmgr.o(i.gapFreeEstLink) for gapFreeEstLink
    gap_centlinkmgr.o(i.GAP_EstablishLinkReq) refers to gap_configmgr.o(.data) for gapProfileRole
    gap_centlinkmgr.o(i.GAP_EstablishLinkReq) refers to gap_linkmgr.o(.data) for pEstLink
    gap_centlinkmgr.o(i.GAP_UpdateLinkParamReq) refers to linkdb.o(i.linkDB_State) for linkDB_State
    gap_centlinkmgr.o(i.GAP_UpdateLinkParamReq) refers to patch.o(i.HCI_LE_ConnUpdateCmd) for HCI_LE_ConnUpdateCmd
    gap_centlinkmgr.o(i.GAP_UpdateLinkParamReq) refers to gap_configmgr.o(.data) for gapProfileRole
    gap_centlinkmgr.o(i.gapCancelLinkReq) refers to gap_linkmgr.o(.data) for pEstLink
    gap_centlinkmgr.o(i.gapProcessConnUpdateCmdStatus) refers to gap_linkmgr.o(i.gapSendLinkUpdateEvent) for gapSendLinkUpdateEvent
    gap_centlinkmgr.o(i.gapProcessCreateLLConnCmdStatus) refers to gap_linkmgr.o(i.sendEstLinkEvent) for sendEstLinkEvent
    gap_centlinkmgr.o(i.gapProcessCreateLLConnCmdStatus) refers to gap_linkmgr.o(i.gapFreeEstLink) for gapFreeEstLink
    gap_centlinkmgr.o(i.gapProcessCreateLLConnCmdStatus) refers to gap_linkmgr.o(.data) for pEstLink
    gap_centlinkmgr.o(i.gapProcessL2CAPSignalEvt) refers to gap_configmgr.o(i.GAP_GetParamValue) for GAP_GetParamValue
    gap_centlinkmgr.o(i.gapProcessL2CAPSignalEvt) refers to l2cap_if.o(i.L2CAP_ConnParamUpdateRsp) for L2CAP_ConnParamUpdateRsp
    gap_centlinkmgr.o(i.gapProcessL2CAPSignalEvt) refers to patch.o(i.HCI_LE_ConnUpdateCmd) for HCI_LE_ConnUpdateCmd
    gap_centlinkmgr.o(i.gapTerminateConnComplete) refers to gap_linkmgr.o(i.gapFreeEstLink) for gapFreeEstLink
    gap_devmgr.o(i.GAP_ResolvePrivateAddr) refers to sm_mgr.o(i.SM_ResolveRandomAddrs) for SM_ResolveRandomAddrs
    gap_devmgr.o(i.gapFindADType) refers to gap_devmgr.o(i.gapValidADType) for gapValidADType
    gap_devmgr.o(i.gapIsAdvertising) refers to gap_devmgr.o(.data) for .data
    gap_devmgr.o(i.gapIsScanning) refers to gap_devmgr.o(.data) for .data
    gap_linkmgr.o(i.GAP_Authenticate) refers to linkdb.o(i.linkDB_Find) for linkDB_Find
    gap_linkmgr.o(i.GAP_Authenticate) refers to sm_pairing.o(i.SM_StartPairing) for SM_StartPairing
    gap_linkmgr.o(i.GAP_Authenticate) refers to sm_pairing.o(i.smProcessPairingReq) for smProcessPairingReq
    gap_linkmgr.o(i.GAP_Authenticate) refers to gap_linkmgr.o(i.gapFreeAuthLink) for gapFreeAuthLink
    gap_linkmgr.o(i.GAP_Authenticate) refers to gap_configmgr.o(.data) for gapProfileRole
    gap_linkmgr.o(i.GAP_Authenticate) refers to gap_linkmgr.o(.data) for .data
    gap_linkmgr.o(i.GAP_Authenticate) refers to gap_task.o(.data) for gapTaskID
    gap_linkmgr.o(i.GAP_Bond) refers to linkdb.o(i.linkDB_Find) for linkDB_Find
    gap_linkmgr.o(i.GAP_Bond) refers to sm_pairing.o(i.smStartEncryption) for smStartEncryption
    gap_linkmgr.o(i.GAP_Bond) refers to gap_configmgr.o(.data) for gapProfileRole
    gap_linkmgr.o(i.GAP_PasscodeUpdate) refers to linkdb.o(i.linkDB_Find) for linkDB_Find
    gap_linkmgr.o(i.GAP_PasscodeUpdate) refers to sm_pairing.o(i.SM_PasskeyUpdate) for SM_PasskeyUpdate
    gap_linkmgr.o(i.GAP_PasskeyUpdate) refers to gap_linkmgr.o(i.GAP_PasscodeUpdate) for GAP_PasscodeUpdate
    gap_linkmgr.o(i.GAP_Signable) refers to linkdb.o(i.linkDB_Find) for linkDB_Find
    gap_linkmgr.o(i.GAP_Signable) refers to gap_configmgr.o(.data) for gapProfileRole
    gap_linkmgr.o(i.GAP_TerminateAuth) refers to linkdb.o(i.linkDB_Find) for linkDB_Find
    gap_linkmgr.o(i.GAP_TerminateAuth) refers to sm_pairing.o(i.smSendFailAndEnd) for smSendFailAndEnd
    gap_linkmgr.o(i.GAP_TerminateLinkReq) refers to gap_linkmgr.o(i.disconnectNext) for disconnectNext
    gap_linkmgr.o(i.GAP_TerminateLinkReq) refers to linkdb.o(i.linkDB_Find) for linkDB_Find
    gap_linkmgr.o(i.GAP_TerminateLinkReq) refers to gap_linkmgr.o(.data) for .data
    gap_linkmgr.o(i.disconnectNext) refers to linkdb.o(i.linkDB_FindFirst) for linkDB_FindFirst
    gap_linkmgr.o(i.gapFreeAuthLink) refers to gap_linkmgr.o(.data) for .data
    gap_linkmgr.o(i.gapFreeEstLink) refers to gap_linkmgr.o(.data) for .data
    gap_linkmgr.o(i.gapPairingCompleteCB) refers to linkdb.o(i.linkDB_Find) for linkDB_Find
    gap_linkmgr.o(i.gapPairingCompleteCB) refers to gap_linkmgr.o(i.sendAuthEvent) for sendAuthEvent
    gap_linkmgr.o(i.gapPairingCompleteCB) refers to gap_linkmgr.o(.data) for .data
    gap_linkmgr.o(i.gapPasskeyNeededCB) refers to linkdb.o(i.linkDB_Find) for linkDB_Find
    gap_linkmgr.o(i.gapPasskeyNeededCB) refers to gap_configmgr.o(i.GAP_GetParamValue) for GAP_GetParamValue
    gap_linkmgr.o(i.gapProcessConnUpdateCompleteEvt) refers to gap_linkmgr.o(i.gapSendLinkUpdateEvent) for gapSendLinkUpdateEvent
    gap_linkmgr.o(i.gapProcessConnectionCompleteEvt) refers to gap_configmgr.o(i.gapDetermineAddrType) for gapDetermineAddrType
    gap_linkmgr.o(i.gapProcessConnectionCompleteEvt) refers to gap_linkmgr.o(i.sendEstLinkEvent) for sendEstLinkEvent
    gap_linkmgr.o(i.gapProcessConnectionCompleteEvt) refers to linkdb.o(i.linkDB_Add) for linkDB_Add
    gap_linkmgr.o(i.gapProcessConnectionCompleteEvt) refers to gap_linkmgr.o(i.gapFreeEstLink) for gapFreeEstLink
    gap_linkmgr.o(i.gapProcessConnectionCompleteEvt) refers to gap_linkmgr.o(i.disconnectNext) for disconnectNext
    gap_linkmgr.o(i.gapProcessConnectionCompleteEvt) refers to gap_linkmgr.o(i.sendTerminateEvent) for sendTerminateEvent
    gap_linkmgr.o(i.gapProcessConnectionCompleteEvt) refers to att_util.o(i.ATT_UpdateMtuSize) for ATT_UpdateMtuSize
    gap_linkmgr.o(i.gapProcessConnectionCompleteEvt) refers to l2cap_util.o(i.L2CAP_ReassemblePkt_Reset) for L2CAP_ReassemblePkt_Reset
    gap_linkmgr.o(i.gapProcessConnectionCompleteEvt) refers to l2cap_util.o(i.L2CAP_SegmentPkt_Reset) for L2CAP_SegmentPkt_Reset
    gap_linkmgr.o(i.gapProcessConnectionCompleteEvt) refers to gap_linkmgr.o(.data) for .data
    gap_linkmgr.o(i.gapProcessConnectionCompleteEvt) refers to gap_task.o(.data) for pfnPeripheralCBs
    gap_linkmgr.o(i.gapProcessConnectionCompleteEvt) refers to gap_configmgr.o(.data) for gapAppTaskID
    gap_linkmgr.o(i.gapProcessDisconnectCompleteEvt) refers to linkdb.o(i.linkDB_Find) for linkDB_Find
    gap_linkmgr.o(i.gapProcessDisconnectCompleteEvt) refers to linkdb.o(i.linkDB_Remove) for linkDB_Remove
    gap_linkmgr.o(i.gapProcessDisconnectCompleteEvt) refers to gap_linkmgr.o(i.disconnectNext) for disconnectNext
    gap_linkmgr.o(i.gapProcessDisconnectCompleteEvt) refers to gap_linkmgr.o(i.sendTerminateEvent) for sendTerminateEvent
    gap_linkmgr.o(i.gapProcessDisconnectCompleteEvt) refers to gap_linkmgr.o(i.gapFreeAuthLink) for gapFreeAuthLink
    gap_linkmgr.o(i.gapProcessDisconnectCompleteEvt) refers to att_util.o(i.ATT_UpdateMtuSize) for ATT_UpdateMtuSize
    gap_linkmgr.o(i.gapProcessDisconnectCompleteEvt) refers to l2cap_util.o(i.L2CAP_ReassemblePkt_Reset) for L2CAP_ReassemblePkt_Reset
    gap_linkmgr.o(i.gapProcessDisconnectCompleteEvt) refers to l2cap_util.o(i.L2CAP_SegmentPkt_Reset) for L2CAP_SegmentPkt_Reset
    gap_linkmgr.o(i.gapProcessDisconnectCompleteEvt) refers to gap_linkmgr.o(.data) for .data
    gap_linkmgr.o(i.gapRegisterCentralConn) refers to gap_linkmgr.o(.data) for .data
    gap_linkmgr.o(i.gapSendBondCompleteEvent) refers to linkdb.o(i.linkDB_Find) for linkDB_Find
    gap_linkmgr.o(i.gapSendBondCompleteEvent) refers to gap_configmgr.o(i.GAP_GetParamValue) for GAP_GetParamValue
    gap_linkmgr.o(i.gapSendLinkUpdateEvent) refers to linkdb.o(i.linkDB_Find) for linkDB_Find
    gap_linkmgr.o(i.gapSendLinkUpdateEvent) refers to gap_configmgr.o(.data) for gapAppTaskID
    gap_linkmgr.o(i.gapSendPairingReqEvent) refers to linkdb.o(i.linkDB_Find) for linkDB_Find
    gap_linkmgr.o(i.gapSendPairingReqEvent) refers to gap_configmgr.o(i.GAP_GetParamValue) for GAP_GetParamValue
    gap_linkmgr.o(i.sendAuthEvent) refers to linkdb.o(i.linkDB_Find) for linkDB_Find
    gap_linkmgr.o(i.sendAuthEvent) refers to gap_configmgr.o(i.GAP_GetParamValue) for GAP_GetParamValue
    gap_linkmgr.o(i.sendAuthEvent) refers to gap_linkmgr.o(i.gapFreeAuthLink) for gapFreeAuthLink
    gap_linkmgr.o(i.sendAuthEvent) refers to gap_linkmgr.o(.data) for .data
    l2cap_if.o(i.L2CAP_CmdReject) refers to l2cap_util.o(i.l2capSendCmd) for l2capSendCmd
    l2cap_if.o(i.L2CAP_CmdReject) refers to l2cap_util.o(i.L2CAP_BuildCmdReject) for L2CAP_BuildCmdReject
    l2cap_if.o(i.L2CAP_ConnParamUpdateReq) refers to l2cap_util.o(i.l2capSendReq) for l2capSendReq
    l2cap_if.o(i.L2CAP_ConnParamUpdateReq) refers to l2cap_util.o(i.l2capBuildParamUpdateReq) for l2capBuildParamUpdateReq
    l2cap_if.o(i.L2CAP_ConnParamUpdateRsp) refers to l2cap_util.o(i.l2capSendCmd) for l2capSendCmd
    l2cap_if.o(i.L2CAP_ConnParamUpdateRsp) refers to l2cap_util.o(i.L2CAP_BuildParamUpdateRsp) for L2CAP_BuildParamUpdateRsp
    l2cap_if.o(i.L2CAP_EchoReq) refers to l2cap_util.o(i.l2capSendReq) for l2capSendReq
    l2cap_if.o(i.L2CAP_EchoReq) refers to l2cap_util.o(i.l2capBuildEchoReq) for l2capBuildEchoReq
    l2cap_if.o(i.L2CAP_HostNumCompletedPkts) refers to l2cap_if.o(.data) for .data
    l2cap_if.o(i.L2CAP_InfoReq) refers to l2cap_util.o(i.l2capSendReq) for l2capSendReq
    l2cap_if.o(i.L2CAP_InfoReq) refers to l2cap_util.o(i.l2capBuildInfoReq) for l2capBuildInfoReq
    l2cap_if.o(i.L2CAP_RegisterApp) refers to l2cap_task.o(.bss) for l2capFixedChannels
    l2cap_if.o(i.L2CAP_SendData) refers to linkdb.o(i.linkDB_State) for linkDB_State
    l2cap_if.o(i.L2CAP_SendData) refers to l2cap_util.o(i.l2capEncapSendData) for l2capEncapSendData
    l2cap_if.o(i.L2CAP_SetControllerToHostFlowCtrl) refers to l2cap_if.o(.data) for .data
    l2cap_if.o(i.L2CAP_SetControllerToHostFlowCtrl_DLE) refers to patch.o(i.LL_PLUS_GetCurrentPduDle) for LL_PLUS_GetCurrentPduDle
    l2cap_if.o(i.L2CAP_SetControllerToHostFlowCtrl_DLE) refers to l2cap_if.o(.data) for .data
    linkdb.o(i.linkDB_Add) refers to linkdb.o(i.linkDB_Find) for linkDB_Find
    linkdb.o(i.linkDB_Add) refers to linkdb.o(i.reportStatusChange) for reportStatusChange
    linkdb.o(i.linkDB_Authen) refers to linkdb.o(i.linkDB_Find) for linkDB_Find
    linkdb.o(i.linkDB_Find) refers to linkdb.o(.bss) for .bss
    linkdb.o(i.linkDB_FindFirst) refers to linkdb.o(.bss) for .bss
    linkdb.o(i.linkDB_Init) refers to linkdb.o(.bss) for .bss
    linkdb.o(i.linkDB_NumActive) refers to linkdb.o(.bss) for .bss
    linkdb.o(i.linkDB_PerformFunc) refers to linkdb.o(.bss) for .bss
    linkdb.o(i.linkDB_Register) refers to linkdb.o(.bss) for .bss
    linkdb.o(i.linkDB_Remove) refers to linkdb.o(i.linkDB_Find) for linkDB_Find
    linkdb.o(i.linkDB_Remove) refers to linkdb.o(i.reportStatusChange) for reportStatusChange
    linkdb.o(i.linkDB_State) refers to linkdb.o(i.linkDB_Find) for linkDB_Find
    linkdb.o(i.linkDB_Update) refers to linkdb.o(i.linkDB_Find) for linkDB_Find
    linkdb.o(i.linkDB_Update) refers to linkdb.o(i.reportStatusChange) for reportStatusChange
    linkdb.o(i.reportStatusChange) refers to linkdb.o(.bss) for .bss
    sm_mgr.o(i.SM_CalcRandomAddr) refers to sm_mgr.o(i.smGenerateRandBuf) for smGenerateRandBuf
    sm_mgr.o(i.SM_CalcRandomAddr) refers to sm_mgr.o(i.sm_ah) for sm_ah
    sm_mgr.o(i.SM_Encrypt) refers to sm_mgr.o(i.smEncrypt) for smEncrypt
    sm_mgr.o(i.SM_GenerateAuthenSig) refers to gap_configmgr.o(i.gapGetSignCounter) for gapGetSignCounter
    sm_mgr.o(i.SM_GenerateAuthenSig) refers to gap_configmgr.o(i.gapGetSRK) for gapGetSRK
    sm_mgr.o(i.SM_GenerateAuthenSig) refers to sm_mgr.o(i.sm_CMAC) for sm_CMAC
    sm_mgr.o(i.SM_GenerateAuthenSig) refers to gap_configmgr.o(i.gapIncSignCounter) for gapIncSignCounter
    sm_mgr.o(i.SM_NewRandKey) refers to sm_mgr.o(i.smInProcess) for smInProcess
    sm_mgr.o(i.SM_NewRandKey) refers to sm_mgr.o(.data) for .data
    sm_mgr.o(i.SM_ResolveRandomAddrs) refers to sm_mgr.o(i.sm_ah) for sm_ah
    sm_mgr.o(i.SM_VerifyAuthenSig) refers to linkdb.o(i.linkDB_Find) for linkDB_Find
    sm_mgr.o(i.SM_VerifyAuthenSig) refers to sm_mgr.o(i.sm_CMAC) for sm_CMAC
    sm_mgr.o(i.SM_VerifyAuthenSig) refers to gap_configmgr.o(i.gapUpdateConnSignCounter) for gapUpdateConnSignCounter
    sm_mgr.o(i.generate_subkey) refers to sm_mgr.o(i.smEncryptLocal) for smEncryptLocal
    sm_mgr.o(i.generate_subkey) refers to sm_mgr.o(i.leftshift_onebit) for leftshift_onebit
    sm_mgr.o(i.generate_subkey) refers to sm_mgr.o(i.xor_128) for xor_128
    sm_mgr.o(i.generate_subkey) refers to sm_mgr.o(.constdata) for .constdata
    sm_mgr.o(i.smInProcess) refers to sm_mgr.o(.data) for .data
    sm_mgr.o(i.smProcessRandComplete) refers to sm_mgr.o(.data) for .data
    sm_mgr.o(i.smStartRspTimer) refers to gap_configmgr.o(i.GAP_GetParamValue) for GAP_GetParamValue
    sm_mgr.o(i.smStartRspTimer) refers to sm_pairing.o(.data) for pPairingParams
    sm_mgr.o(i.smStartRspTimer) refers to sm_mgr.o(.bss) for .bss
    sm_mgr.o(i.smStartRspTimer) refers to sm_task.o(i.smTo_timerCB) for smTo_timerCB
    sm_mgr.o(i.smStopRspTimer) refers to sm_pairing.o(.data) for pPairingParams
    sm_mgr.o(i.sm_CMAC) refers to sm_mgr.o(i.generate_subkey) for generate_subkey
    sm_mgr.o(i.sm_CMAC) refers to sm_mgr.o(i.xor_128) for xor_128
    sm_mgr.o(i.sm_CMAC) refers to sm_mgr.o(i.smEncryptLocal) for smEncryptLocal
    sm_mgr.o(i.sm_ah) refers to sm_mgr.o(i.smEncrypt) for smEncrypt
    sm_mgr.o(i.sm_c1new) refers to sm_mgr.o(i.sm_xor) for sm_xor
    sm_mgr.o(i.sm_c1new) refers to sm_mgr.o(i.smEncrypt) for smEncrypt
    sm_mgr.o(i.sm_d1) refers to sm_mgr.o(i.smEncrypt) for smEncrypt
    sm_mgr.o(i.sm_dm) refers to sm_mgr.o(i.smEncrypt) for smEncrypt
    sm_mgr.o(i.sm_s1) refers to sm_mgr.o(i.smEncrypt) for smEncrypt
    aes.o(i.KeyExpansion) refers to aes.o(i.getByte) for getByte
    aes.o(i.KeyExpansion) refers to aes.o(i.getBit) for getBit
    aes.o(i.KeyExpansion) refers to aes.o(.constdata) for .constdata
    aes.o(i.KeyExpansion) refers to aes.o(.data) for sBox
    aes.o(i.MixColumns) refers to aes.o(i.xtime) for xtime
    aes.o(i.SubBytes) refers to aes.o(.data) for sBox
    aes.o(i.flash_check_parition) refers to phy_sec_ext.o(.bss) for g_ota_sec_key
    aes.o(i.flash_load_parition) refers to phy_sec_ext.o(.bss) for g_ota_sec_key
    aes.o(i.is_crypto_app) refers to phy_sec_ext.o(i.finidv) for finidv
    aes.o(i.xtime) refers to aes.o(i.getBit) for getBit
    aes.o(i.xtime) refers to aes.o(i.getByte) for getByte
    att_util.o(i.ATT_CompareUUID) refers to att_util.o(i.ATT_ConvertUUIDto128) for ATT_ConvertUUIDto128
    att_util.o(i.ATT_ConvertUUIDto128) refers to att_util.o(.constdata) for .constdata
    att_util.o(i.ATT_ConvertUUIDto16) refers to att_util.o(.constdata) for .constdata
    att_util.o(i.ATT_GetCurrentMTUSize) refers to att_util.o(.data) for .data
    att_util.o(i.ATT_InitMtuSize) refers to att_util.o(.data) for .data
    att_util.o(i.ATT_ParseFindByTypeValueRsp) refers to att_util.o(.data) for .data
    att_util.o(i.ATT_ParsePacket) refers to sm_mgr.o(i.SM_VerifyAuthenSig) for SM_VerifyAuthenSig
    att_util.o(i.ATT_ParseReadMultiReq) refers to att_util.o(.data) for .data
    att_util.o(i.ATT_SetMTUSizeMax) refers to att_util.o(.data) for .data
    att_util.o(i.ATT_UpdateMtuSize) refers to att_util.o(.data) for .data
    att_util.o(i.attSendMsg) refers to l2cap_util.o(i.L2CAP_bm_alloc) for L2CAP_bm_alloc
    att_util.o(i.attSendMsg) refers to linkdb.o(i.linkDB_State) for linkDB_State
    att_util.o(i.attSendMsg) refers to sm_mgr.o(i.SM_GenerateAuthenSig) for SM_GenerateAuthenSig
    att_util.o(i.attSendMsg) refers to l2cap_if.o(i.L2CAP_SendData) for L2CAP_SendData
    att_util.o(i.attSendMsg) refers to att_util.o(.data) for .data
    l2cap_task.o(i.L2CAP_Init) refers to l2cap_util.o(i.l2capSarBufReset) for l2capSarBufReset
    l2cap_task.o(i.L2CAP_Init) refers to l2cap_task.o(.data) for .data
    l2cap_task.o(i.L2CAP_Init) refers to l2cap_task.o(.bss) for .bss
    l2cap_task.o(i.L2CAP_ProcessEvent) refers to l2cap_task.o(i.l2capProcessRxData) for l2capProcessRxData
    l2cap_task.o(i.L2CAP_ProcessEvent) refers to l2cap_task.o(.data) for .data
    l2cap_task.o(i.l2capProcessRsp) refers to l2cap_util.o(i.l2capFindLocalId) for l2capFindLocalId
    l2cap_task.o(i.l2capProcessRsp) refers to l2cap_util.o(i.l2capParseCmdReject) for l2capParseCmdReject
    l2cap_task.o(i.l2capProcessRsp) refers to l2cap_util.o(i.l2capParseParamUpdateRsp) for l2capParseParamUpdateRsp
    l2cap_task.o(i.l2capProcessRsp) refers to l2cap_util.o(i.l2capStopTimer) for l2capStopTimer
    l2cap_task.o(i.l2capProcessRsp) refers to l2cap_util.o(i.l2capNotifySignal) for l2capNotifySignal
    l2cap_task.o(i.l2capProcessRsp) refers to l2cap_util.o(i.l2capFreeChannel) for l2capFreeChannel
    l2cap_task.o(i.l2capProcessRxData) refers to l2cap_util.o(i.l2capParsePacket) for l2capParsePacket
    l2cap_task.o(i.l2capProcessRxData) refers to l2cap_task.o(i.l2capProcessSignal) for l2capProcessSignal
    l2cap_task.o(i.l2capProcessRxData) refers to l2cap_util.o(i.l2capNotifyData) for l2capNotifyData
    l2cap_task.o(i.l2capProcessRxData) refers to l2cap_if.o(i.L2CAP_HostNumCompletedPkts) for L2CAP_HostNumCompletedPkts
    l2cap_task.o(i.l2capProcessRxData) refers to l2cap_task.o(.bss) for .bss
    l2cap_task.o(i.l2capProcessSignal) refers to l2cap_util.o(i.l2capParseSignalHdr) for l2capParseSignalHdr
    l2cap_task.o(i.l2capProcessSignal) refers to l2cap_task.o(i.l2capProcessRsp) for l2capProcessRsp
    l2cap_task.o(i.l2capProcessSignal) refers to l2cap_util.o(i.L2CAP_ParseParamUpdateReq) for L2CAP_ParseParamUpdateReq
    l2cap_task.o(i.l2capProcessSignal) refers to l2cap_util.o(i.l2capHandleRxError) for l2capHandleRxError
    l2cap_task.o(i.l2capProcessSignal) refers to l2cap_util.o(i.l2capNotifySignal) for l2capNotifySignal
    l2cap_task.o(i.l2capProcessSignal) refers to l2cap_if.o(i.L2CAP_CmdReject) for L2CAP_CmdReject
    l2cap_task.o(i.l2capProcessSignal) refers to l2cap_task.o(.bss) for .bss
    l2cap_util.o(_section_sram_code_) refers to l2cap_util.o(.bss) for .bss
    l2cap_util.o(i.L2CAP_ExtendFramgents_Config) refers to l2cap_util.o(.data) for .data
    l2cap_util.o(i.L2CAP_ReassemblePkt_Reset) refers to l2cap_util.o(.bss) for .bss
    l2cap_util.o(i.L2CAP_SegmentPkt_Reset) refers to l2cap_util.o(.bss) for .bss
    l2cap_util.o(i.l2capAllocChannel) refers to l2cap_task.o(.bss) for l2capChannels
    l2cap_util.o(i.l2capEncapSendData) refers to l2cap_util.o(i.l2capPktToSegmentBuff) for l2capPktToSegmentBuff
    l2cap_util.o(i.l2capEncapSendData) refers to l2cap_util.o(_section_sram_code_) for l2capSegmentBuffToLinkLayer
    l2cap_util.o(i.l2capEncapSendData) refers to l2cap_task.o(.data) for l2capTaskID
    l2cap_util.o(i.l2capEncapSendData) refers to l2cap_util.o(.bss) for .bss
    l2cap_util.o(i.l2capFindLocalId) refers to l2cap_task.o(.bss) for l2capChannels
    l2cap_util.o(i.l2capHandleTimerCB) refers to l2cap_util.o(i.l2capNotifySignal) for l2capNotifySignal
    l2cap_util.o(i.l2capParsePacket) refers to l2cap_util.o(i.L2CAP_ReassemblePkt_Reset) for L2CAP_ReassemblePkt_Reset
    l2cap_util.o(i.l2capParsePacket) refers to l2cap_util.o(i.L2CAP_bm_alloc) for L2CAP_bm_alloc
    l2cap_util.o(i.l2capParsePacket) refers to l2cap_util.o(.bss) for .bss
    l2cap_util.o(i.l2capParsePacket) refers to l2cap_util.o(.data) for .data
    l2cap_util.o(i.l2capPktToSegmentBuff) refers to att_util.o(i.ATT_GetCurrentMTUSize) for ATT_GetCurrentMTUSize
    l2cap_util.o(i.l2capPktToSegmentBuff) refers to l2cap_util.o(_section_sram_code_) for L2CAP_Fragment_SendDataPkt
    l2cap_util.o(i.l2capPktToSegmentBuff) refers to l2cap_util.o(i.L2CAP_Fragment_bm_alloc) for L2CAP_Fragment_bm_alloc
    l2cap_util.o(i.l2capPktToSegmentBuff) refers to l2cap_util.o(.bss) for .bss
    l2cap_util.o(i.l2capSarBufReset) refers to l2cap_util.o(.bss) for .bss
    l2cap_util.o(i.l2capSendCmd) refers to l2cap_util.o(i.L2CAP_bm_alloc) for L2CAP_bm_alloc
    l2cap_util.o(i.l2capSendCmd) refers to l2cap_util.o(i.l2capEncapSendData) for l2capEncapSendData
    l2cap_util.o(i.l2capSendReq) refers to linkdb.o(i.linkDB_State) for linkDB_State
    l2cap_util.o(i.l2capSendReq) refers to l2cap_util.o(i.l2capAllocChannel) for l2capAllocChannel
    l2cap_util.o(i.l2capSendReq) refers to l2cap_util.o(i.l2capSendCmd) for l2capSendCmd
    l2cap_util.o(i.l2capSendReq) refers to l2cap_util.o(i.l2capFreeChannel) for l2capFreeChannel
    l2cap_util.o(i.l2capSendReq) refers to l2cap_util.o(.data) for .data
    l2cap_util.o(i.l2capSendReq) refers to l2cap_util.o(i.l2capHandleTimerCB) for l2capHandleTimerCB
    sm_pairing.o(i.SM_PasskeyUpdate) refers to sm_mgr.o(i.smGenerateRandBuf) for smGenerateRandBuf
    sm_pairing.o(i.SM_PasskeyUpdate) refers to sm_pairing.o(i.sm_c1) for sm_c1
    sm_pairing.o(i.SM_PasskeyUpdate) refers to sm_pairing.o(i.smGenerateConfirm) for smGenerateConfirm
    sm_pairing.o(i.SM_PasskeyUpdate) refers to sm_pairing.o(.data) for .data
    sm_pairing.o(i.SM_StartPairing) refers to gap_configmgr.o(i.GAP_GetParamValue) for GAP_GetParamValue
    sm_pairing.o(i.SM_StartPairing) refers to sm_pairing.o(i.smGeneratePairingReqRsp) for smGeneratePairingReqRsp
    sm_pairing.o(i.SM_StartPairing) refers to sm_pairing.o(i.smFreePairingParams) for smFreePairingParams
    sm_pairing.o(i.SM_StartPairing) refers to sm_pairing.o(.data) for .data
    sm_pairing.o(i.smDetermineKeySize) refers to sm_pairing.o(.data) for .data
    sm_pairing.o(i.smEndPairing) refers to gap_linkmgr.o(i.gapPairingCompleteCB) for gapPairingCompleteCB
    sm_pairing.o(i.smEndPairing) refers to sm_pairing.o(i.smFreePairingParams) for smFreePairingParams
    sm_pairing.o(i.smEndPairing) refers to sm_pairing.o(.data) for .data
    sm_pairing.o(i.smFreePairingParams) refers to sm_mgr.o(i.smStopRspTimer) for smStopRspTimer
    sm_pairing.o(i.smFreePairingParams) refers to sm_pairing.o(.data) for .data
    sm_pairing.o(i.smGenerateConfirm) refers to smp.o(i.smSendSMMsg) for smSendSMMsg
    sm_pairing.o(i.smGenerateConfirm) refers to sm_pairing.o(.data) for .data
    sm_pairing.o(i.smGenerateConfirm) refers to smp.o(i.smpBuildPairingConfirm) for smpBuildPairingConfirm
    sm_pairing.o(i.smGeneratePairingReqRsp) refers to sm_pairing.o(i.smSetPairingReqRsp) for smSetPairingReqRsp
    sm_pairing.o(i.smGeneratePairingReqRsp) refers to smp.o(i.smSendSMMsg) for smSendSMMsg
    sm_pairing.o(i.smGeneratePairingReqRsp) refers to sm_pairing.o(.data) for .data
    sm_pairing.o(i.smGeneratePairingReqRsp) refers to smp.o(i.smpBuildPairingReq) for smpBuildPairingReq
    sm_pairing.o(i.smGeneratePairingReqRsp) refers to smp.o(i.smpBuildPairingRsp) for smpBuildPairingRsp
    sm_pairing.o(i.smGenerateRandMsg) refers to smp.o(i.smSendSMMsg) for smSendSMMsg
    sm_pairing.o(i.smGenerateRandMsg) refers to sm_pairing.o(.data) for .data
    sm_pairing.o(i.smGenerateRandMsg) refers to smp.o(i.smpBuildPairingRandom) for smpBuildPairingRandom
    sm_pairing.o(i.smLinkCheck) refers to sm_pairing.o(i.smFreePairingParams) for smFreePairingParams
    sm_pairing.o(i.smLinkCheck) refers to sm_pairing.o(.data) for .data
    sm_pairing.o(i.smNextPairingState) refers to sm_pairing.o(i.smEndPairing) for smEndPairing
    sm_pairing.o(i.smNextPairingState) refers to sm_pairing.o(.data) for .data
    sm_pairing.o(i.smPairingSendEncInfo) refers to smp.o(i.smSendSMMsg) for smSendSMMsg
    sm_pairing.o(i.smPairingSendEncInfo) refers to smp.o(i.smpBuildEncInfo) for smpBuildEncInfo
    sm_pairing.o(i.smPairingSendIdentityAddrInfo) refers to smp.o(i.smSendSMMsg) for smSendSMMsg
    sm_pairing.o(i.smPairingSendIdentityAddrInfo) refers to smp.o(i.smpBuildIdentityAddrInfo) for smpBuildIdentityAddrInfo
    sm_pairing.o(i.smPairingSendIdentityInfo) refers to smp.o(i.smSendSMMsg) for smSendSMMsg
    sm_pairing.o(i.smPairingSendIdentityInfo) refers to smp.o(i.smpBuildIdentityInfo) for smpBuildIdentityInfo
    sm_pairing.o(i.smPairingSendMasterID) refers to smp.o(i.smSendSMMsg) for smSendSMMsg
    sm_pairing.o(i.smPairingSendMasterID) refers to smp.o(i.smpBuildMasterID) for smpBuildMasterID
    sm_pairing.o(i.smPairingSendSingingInfo) refers to smp.o(i.smSendSMMsg) for smSendSMMsg
    sm_pairing.o(i.smPairingSendSingingInfo) refers to smp.o(i.smpBuildSigningInfo) for smpBuildSigningInfo
    sm_pairing.o(i.smProcessDataMsg) refers to smp.o(i.smpParsePairingReq) for smpParsePairingReq
    sm_pairing.o(i.smProcessDataMsg) refers to smp.o(i.smpParsePairingConfirm) for smpParsePairingConfirm
    sm_pairing.o(i.smProcessDataMsg) refers to smp.o(i.smpParsePairingRandom) for smpParsePairingRandom
    sm_pairing.o(i.smProcessDataMsg) refers to smp.o(i.smpParsePairingFailed) for smpParsePairingFailed
    sm_pairing.o(i.smProcessDataMsg) refers to smp.o(i.smpParseEncInfo) for smpParseEncInfo
    sm_pairing.o(i.smProcessDataMsg) refers to smp.o(i.smpParseMasterID) for smpParseMasterID
    sm_pairing.o(i.smProcessDataMsg) refers to smp.o(i.smpParseIdentityInfo) for smpParseIdentityInfo
    sm_pairing.o(i.smProcessDataMsg) refers to smp.o(i.smpParseIdentityAddrInfo) for smpParseIdentityAddrInfo
    sm_pairing.o(i.smProcessDataMsg) refers to smp.o(i.smpParseSigningInfo) for smpParseSigningInfo
    sm_pairing.o(i.smProcessDataMsg) refers to smp.o(i.smpParseSecurityReq) for smpParseSecurityReq
    sm_pairing.o(i.smProcessDataMsg) refers to sm_pairing.o(i.smpProcessIncoming) for smpProcessIncoming
    sm_pairing.o(i.smProcessDataMsg) refers to sm_pairing.o(i.smSendFailAndEnd) for smSendFailAndEnd
    sm_pairing.o(i.smProcessDataMsg) refers to sm_mgr.o(i.smStartRspTimer) for smStartRspTimer
    sm_pairing.o(i.smProcessEncryptChange) refers to sm_pairing.o(i.smEndPairing) for smEndPairing
    sm_pairing.o(i.smProcessEncryptChange) refers to linkdb.o(i.linkDB_Find) for linkDB_Find
    sm_pairing.o(i.smProcessEncryptChange) refers to gap_linkmgr.o(i.gapSendBondCompleteEvent) for gapSendBondCompleteEvent
    sm_pairing.o(i.smProcessEncryptChange) refers to sm_pairing.o(.data) for .data
    sm_pairing.o(i.smProcessPairingReq) refers to sm_mgr.o(i.smUint8ToAuthReq) for smUint8ToAuthReq
    sm_pairing.o(i.smProcessPairingReq) refers to sm_pairing.o(i.smSendFailAndEnd) for smSendFailAndEnd
    sm_pairing.o(i.smProcessPairingReq) refers to sm_pairing.o(.data) for .data
    sm_pairing.o(i.smRegisterInitiator) refers to sm_pairing.o(.data) for .data
    sm_pairing.o(i.smRegisterResponder) refers to sm_pairing.o(.data) for .data
    sm_pairing.o(i.smSavePairInfo) refers to sm_pairing.o(.data) for .data
    sm_pairing.o(i.smSavePairInfo) refers to sm_pairing.o(.constdata) for .constdata
    sm_pairing.o(i.smSendFailAndEnd) refers to smp.o(i.smSendSMMsg) for smSendSMMsg
    sm_pairing.o(i.smSendFailAndEnd) refers to sm_pairing.o(i.smEndPairing) for smEndPairing
    sm_pairing.o(i.smSendFailAndEnd) refers to smp.o(i.smpBuildPairingFailed) for smpBuildPairingFailed
    sm_pairing.o(i.smSetPairingReqRsp) refers to sm_mgr.o(i.smUint8ToAuthReq) for smUint8ToAuthReq
    sm_pairing.o(i.smSetPairingReqRsp) refers to sm_pairing.o(.data) for .data
    sm_pairing.o(i.smStartEncryption) refers to sm_pairing.o(.data) for .data
    sm_pairing.o(i.smTimedOut) refers to sm_pairing.o(i.smEndPairing) for smEndPairing
    sm_pairing.o(i.sm_c1) refers to linkdb.o(i.linkDB_Find) for linkDB_Find
    sm_pairing.o(i.sm_c1) refers to sm_pairing.o(i.smSetPairingReqRsp) for smSetPairingReqRsp
    sm_pairing.o(i.sm_c1) refers to gap_configmgr.o(i.gapGetDevAddressMode) for gapGetDevAddressMode
    sm_pairing.o(i.sm_c1) refers to gap_configmgr.o(i.gapGetDevAddress) for gapGetDevAddress
    sm_pairing.o(i.sm_c1) refers to smp.o(i.smpBuildPairingRsp) for smpBuildPairingRsp
    sm_pairing.o(i.sm_c1) refers to smp.o(i.smpBuildPairingReq) for smpBuildPairingReq
    sm_pairing.o(i.sm_c1) refers to sm_mgr.o(i.sm_c1new) for sm_c1new
    sm_pairing.o(i.sm_c1) refers to sm_pairing.o(.data) for .data
    sm_pairing.o(i.smpProcessIncoming) refers to linkdb.o(i.linkDB_Find) for linkDB_Find
    sm_pairing.o(i.smpProcessIncoming) refers to sm_pairing.o(.data) for .data
    sm_pairing.o(i.smpProcessIncoming) refers to gap_configmgr.o(.data) for gapProfileRole
    sm_task.o(i.SM_Init) refers to l2cap_if.o(i.L2CAP_RegisterApp) for L2CAP_RegisterApp
    sm_task.o(i.SM_Init) refers to linkdb.o(i.linkDB_Register) for linkDB_Register
    sm_task.o(i.SM_Init) refers to sm_task.o(.data) for .data
    sm_task.o(i.SM_Init) refers to sm_pairing.o(i.smLinkCheck) for smLinkCheck
    sm_task.o(i.SM_ProcessEvent) refers to sm_task.o(i.smProcessOSALMsg) for smProcessOSALMsg
    sm_task.o(i.SM_ProcessEvent) refers to sm_task.o(.data) for .data
    sm_task.o(i.SM_ProcessEvent) refers to gap_task.o(.data) for gapUnwantedTaskID
    sm_task.o(i.smProcessOSALMsg) refers to sm_mgr.o(i.smProcessRandComplete) for smProcessRandComplete
    sm_task.o(i.smProcessOSALMsg) refers to sm_pairing.o(i.smProcessEncryptChange) for smProcessEncryptChange
    sm_task.o(i.smProcessOSALMsg) refers to sm_pairing.o(i.smProcessDataMsg) for smProcessDataMsg
    sm_task.o(i.smProcessOSALMsg) refers to gap_configmgr.o(.data) for gapProfileRole
    sm_task.o(i.smProcessOSALMsg) refers to sm_pairing.o(.data) for pfnResponderCBs
    sm_task.o(i.smState_timerCB) refers to sm_pairing.o(i.smNextPairingState) for smNextPairingState
    sm_task.o(i.smTo_timerCB) refers to sm_pairing.o(i.smTimedOut) for smTimedOut
    smp.o(i.smSendSMMsg) refers to l2cap_util.o(i.L2CAP_bm_alloc) for L2CAP_bm_alloc
    smp.o(i.smSendSMMsg) refers to l2cap_if.o(i.L2CAP_SendData) for L2CAP_SendData
    smp.o(i.smSendSMMsg) refers to sm_mgr.o(i.smStartRspTimer) for smStartRspTimer
    smp.o(i.smpBuildPairingReq) refers to smp.o(i.smpBuildPairingReqRsp) for smpBuildPairingReqRsp
    smp.o(i.smpBuildPairingReqRsp) refers to sm_mgr.o(i.smAuthReqToUint8) for smAuthReqToUint8
    smp.o(i.smpBuildPairingRsp) refers to smp.o(i.smpBuildPairingReqRsp) for smpBuildPairingReqRsp
    smp.o(i.smpBuildSecurityReq) refers to sm_mgr.o(i.smAuthReqToUint8) for smAuthReqToUint8
    smp.o(i.smpParsePairingReq) refers to sm_mgr.o(i.smUint8ToAuthReq) for smUint8ToAuthReq
    smp.o(i.smpParsePairingReq) refers to gap_configmgr.o(i.GAP_GetParamValue) for GAP_GetParamValue
    smp.o(i.smpParseSecurityReq) refers to sm_mgr.o(i.smUint8ToAuthReq) for smUint8ToAuthReq
    entry.o(.ARM.Collect$$$$00000000) refers (Special) to entry10a.o(.ARM.Collect$$$$0000000D) for __rt_final_cpp
    entry.o(.ARM.Collect$$$$00000000) refers (Special) to entry11a.o(.ARM.Collect$$$$0000000F) for __rt_final_exit
    entry.o(.ARM.Collect$$$$00000000) refers (Special) to entry7b.o(.ARM.Collect$$$$00000008) for _main_clock
    entry.o(.ARM.Collect$$$$00000000) refers (Special) to entry8b.o(.ARM.Collect$$$$0000000A) for _main_cpp_init
    entry.o(.ARM.Collect$$$$00000000) refers (Special) to entry9a.o(.ARM.Collect$$$$0000000B) for _main_init
    entry.o(.ARM.Collect$$$$00000000) refers (Special) to entry5.o(.ARM.Collect$$$$00000004) for _main_scatterload
    entry.o(.ARM.Collect$$$$00000000) refers (Special) to entry2.o(.ARM.Collect$$$$00000001) for _main_stk
    entry2.o(.ARM.Collect$$$$00000001) refers to entry2.o(.ARM.Collect$$$$00002712) for __lit__00000000
    entry2.o(.ARM.Collect$$$$00002712) refers to startup_armcm0.o(STACK) for __initial_sp
    entry2.o(__vectab_stack_and_reset_area) refers to startup_armcm0.o(STACK) for __initial_sp
    entry2.o(__vectab_stack_and_reset_area) refers to entry.o(.ARM.Collect$$$$00000000) for __main
    entry5.o(.ARM.Collect$$$$00000004) refers to init.o(.text) for __scatterload
    entry9a.o(.ARM.Collect$$$$0000000B) refers to main.o(.text.main) for main
    entry9b.o(.ARM.Collect$$$$0000000C) refers to main.o(.text.main) for main
    init.o(.text) refers to entry5.o(.ARM.Collect$$$$00000004) for __main_after_scatterload


==============================================================================

Removing Unused input sections from the image.

    Removing main.o(.text), (0 bytes).
    Removing main.o(.ARM.exidx.text.main), (8 bytes).
    Removing main.o(.bss.g_spif_clk_config), (1 bytes).
    Removing main.o(.ARM.use_no_argv), (4 bytes).
    Removing uart.o(.text), (0 bytes).
    Removing uart.o(.ARM.exidx_section_sram_code_), (8 bytes).
    Removing uart.o(.ARM.exidx_section_sram_code_), (8 bytes).
    Removing uart.o(.text.hal_uart_init), (112 bytes).
    Removing uart.o(.ARM.exidx.text.hal_uart_init), (8 bytes).
    Removing uart.o(.text.uart_hw_init), (428 bytes).
    Removing uart.o(.ARM.exidx.text.uart_hw_init), (8 bytes).
    Removing uart.o(.text.uart_wakeup_process_0), (10 bytes).
    Removing uart.o(.ARM.exidx.text.uart_wakeup_process_0), (8 bytes).
    Removing uart.o(.text.uart_wakeup_process_1), (10 bytes).
    Removing uart.o(.ARM.exidx.text.uart_wakeup_process_1), (8 bytes).
    Removing uart.o(.text.hal_uart_deinit), (176 bytes).
    Removing uart.o(.ARM.exidx.text.hal_uart_deinit), (8 bytes).
    Removing uart.o(.text.hal_uart_set_tx_buf), (84 bytes).
    Removing uart.o(.ARM.exidx.text.hal_uart_set_tx_buf), (8 bytes).
    Removing uart.o(.text.hal_uart_get_tx_ready), (32 bytes).
    Removing uart.o(.ARM.exidx.text.hal_uart_get_tx_ready), (8 bytes).
    Removing uart.o(.text.hal_uart_send_buff), (732 bytes).
    Removing uart.o(.ARM.exidx.text.hal_uart_send_buff), (8 bytes).
    Removing uart.o(.text.hal_uart_send_byte), (184 bytes).
    Removing uart.o(.ARM.exidx.text.hal_uart_send_byte), (8 bytes).
    Removing clock.o(.text), (0 bytes).
    Removing clock.o(.ARM.exidx.text.hal_clk_gate_enable), (8 bytes).
    Removing clock.o(.ARM.exidx.text.hal_clk_gate_disable), (8 bytes).
    Removing clock.o(.text.hal_clk_gate_get), (36 bytes).
    Removing clock.o(.ARM.exidx.text.hal_clk_gate_get), (8 bytes).
    Removing clock.o(.text.hal_clk_get_modules_state), (20 bytes).
    Removing clock.o(.ARM.exidx.text.hal_clk_get_modules_state), (8 bytes).
    Removing clock.o(.text.hal_clk_reset), (106 bytes).
    Removing clock.o(.ARM.exidx.text.hal_clk_reset), (8 bytes).
    Removing clock.o(.ARM.exidx.text.hal_rtc_clock_config), (8 bytes).
    Removing clock.o(.text.hal_systick), (12 bytes).
    Removing clock.o(.ARM.exidx.text.hal_systick), (8 bytes).
    Removing clock.o(.text.hal_ms_intv), (40 bytes).
    Removing clock.o(.ARM.exidx.text.hal_ms_intv), (8 bytes).
    Removing clock.o(.text.WaitMs), (18 bytes).
    Removing clock.o(.ARM.exidx.text.WaitMs), (8 bytes).
    Removing clock.o(.text.WaitUs), (116 bytes).
    Removing clock.o(.ARM.exidx.text.WaitUs), (8 bytes).
    Removing clock.o(.text.hal_system_soft_reset), (40 bytes).
    Removing clock.o(.ARM.exidx.text.hal_system_soft_reset), (8 bytes).
    Removing clock.o(.ARM.exidx.text.hal_rc32k_clk_tracking_init), (8 bytes).
    Removing clock.o(_section_xip_code_), (80 bytes).
    Removing clock.o(.ARM.exidx_section_xip_code_), (16 bytes).
    Removing gpio.o(.text), (0 bytes).
    Removing gpio.o(.text.hal_gpio_write), (100 bytes).
    Removing gpio.o(.ARM.exidx.text.hal_gpio_write), (8 bytes).
    Removing gpio.o(.text.hal_gpio_pin_init), (124 bytes).
    Removing gpio.o(.ARM.exidx.text.hal_gpio_pin_init), (8 bytes).
    Removing gpio.o(.text.hal_gpio_fast_write), (32 bytes).
    Removing gpio.o(.ARM.exidx.text.hal_gpio_fast_write), (8 bytes).
    Removing gpio.o(.ARM.exidx.text.hal_gpio_read), (8 bytes).
    Removing gpio.o(.ARM.exidx.text.hal_gpio_fmux), (8 bytes).
    Removing gpio.o(.ARM.exidx.text.hal_gpio_fmux_set), (8 bytes).
    Removing gpio.o(.text.hal_gpio_pin2pin3_control), (32 bytes).
    Removing gpio.o(.ARM.exidx.text.hal_gpio_pin2pin3_control), (8 bytes).
    Removing gpio.o(.text.hal_gpio_cfg_analog_io), (108 bytes).
    Removing gpio.o(.ARM.exidx.text.hal_gpio_cfg_analog_io), (8 bytes).
    Removing gpio.o(.text.hal_gpio_ds_control), (32 bytes).
    Removing gpio.o(.ARM.exidx.text.hal_gpio_ds_control), (8 bytes).
    Removing gpio.o(.text.hal_gpioretention_unregister), (108 bytes).
    Removing gpio.o(.ARM.exidx.text.hal_gpioretention_unregister), (8 bytes).
    Removing gpio.o(.text.hal_gpioin_unregister), (152 bytes).
    Removing gpio.o(.ARM.exidx.text.hal_gpioin_unregister), (8 bytes).
    Removing gpio.o(.text.hal_gpioin_disable), (132 bytes).
    Removing gpio.o(.ARM.exidx.text.hal_gpioin_disable), (8 bytes).
    Removing gpio.o(.ARM.exidx.text.hal_gpio_pull_set), (8 bytes).
    Removing gpio.o(.text.hal_gpio_wakeup_set), (160 bytes).
    Removing gpio.o(.ARM.exidx.text.hal_gpio_wakeup_set), (8 bytes).
    Removing gpio.o(.ARM.exidx.text.hal_GPIO_IRQHandler), (8 bytes).
    Removing gpio.o(.ARM.exidx.text.hal_gpioin_enable), (8 bytes).
    Removing gpio.o(.text.hal_gpioretention_register), (100 bytes).
    Removing gpio.o(.ARM.exidx.text.hal_gpioretention_register), (8 bytes).
    Removing gpio.o(.ARM.exidx.text.hal_gpioin_register), (8 bytes).
    Removing gpio.o(.ARM.exidx.text.hal_gpio_init), (8 bytes).
    Removing gpio.o(.ARM.exidx.text.hal_gpio_sleep_handler), (8 bytes).
    Removing gpio.o(.ARM.exidx.text.hal_gpio_wakeup_handler), (8 bytes).
    Removing gpio.o(.text.hal_gpio_debug_mux), (32 bytes).
    Removing gpio.o(.ARM.exidx.text.hal_gpio_debug_mux), (8 bytes).
    Removing gpio.o(.text.hal_gpioin_set_flag), (16 bytes).
    Removing gpio.o(.ARM.exidx.text.hal_gpioin_set_flag), (8 bytes).
    Removing timer.o(.text), (0 bytes).
    Removing timer.o(.ARM.exidx.text.hal_TIMER5_IRQHandler), (8 bytes).
    Removing timer.o(.ARM.exidx.text.hal_TIMER6_IRQHandler), (8 bytes).
    Removing timer.o(.text.hal_timer_sleep_handler), (20 bytes).
    Removing timer.o(.ARM.exidx.text.hal_timer_sleep_handler), (8 bytes).
    Removing timer.o(.text.hal_timer_mask_int), (36 bytes).
    Removing timer.o(.ARM.exidx.text.hal_timer_mask_int), (8 bytes).
    Removing timer.o(.text.hal_timer_set), (164 bytes).
    Removing timer.o(.ARM.exidx.text.hal_timer_set), (8 bytes).
    Removing timer.o(.text.hal_timer_stop), (88 bytes).
    Removing timer.o(.ARM.exidx.text.hal_timer_stop), (8 bytes).
    Removing timer.o(.text.hal_timer_init), (112 bytes).
    Removing timer.o(.ARM.exidx.text.hal_timer_init), (8 bytes).
    Removing timer.o(.text.hal_timer_wakeup_handler), (20 bytes).
    Removing timer.o(.ARM.exidx.text.hal_timer_wakeup_handler), (8 bytes).
    Removing timer.o(.text.hal_timer_deinit), (20 bytes).
    Removing timer.o(.ARM.exidx.text.hal_timer_deinit), (8 bytes).
    Removing timer.o(.rodata.TimerIndex), (8 bytes).
    Removing watchdog.o(.text), (0 bytes).
    Removing watchdog.o(.text.hal_WATCHDOG_IRQHandler), (20 bytes).
    Removing watchdog.o(.ARM.exidx.text.hal_WATCHDOG_IRQHandler), (8 bytes).
    Removing watchdog.o(.ARM.exidx_section_sram_code_), (8 bytes).
    Removing watchdog.o(.text.hal_watchdog_feed), (12 bytes).
    Removing watchdog.o(.ARM.exidx.text.hal_watchdog_feed), (8 bytes).
    Removing watchdog.o(.ARM.exidx.text.watchdog_config), (8 bytes).
    Removing pwrmgr.o(.text), (0 bytes).
    Removing pwrmgr.o(.ARM.exidx_section_sram_code_), (16 bytes).
    Removing pwrmgr.o(.ARM.exidx.text.hal_pwrmgr_init), (8 bytes).
    Removing pwrmgr.o(.text.hal_pwrmgr_clk_gate_config), (36 bytes).
    Removing pwrmgr.o(.ARM.exidx.text.hal_pwrmgr_clk_gate_config), (8 bytes).
    Removing pwrmgr.o(.text.hal_pwrmgr_is_lock), (200 bytes).
    Removing pwrmgr.o(.ARM.exidx.text.hal_pwrmgr_is_lock), (8 bytes).
    Removing pwrmgr.o(.ARM.exidx.text.hal_pwrmgr_lock), (8 bytes).
    Removing pwrmgr.o(.ARM.exidx.text.hal_pwrmgr_unlock), (8 bytes).
    Removing pwrmgr.o(.ARM.exidx.text.hal_pwrmgr_register), (8 bytes).
    Removing pwrmgr.o(.text.hal_pwrmgr_unregister), (204 bytes).
    Removing pwrmgr.o(.ARM.exidx.text.hal_pwrmgr_unregister), (8 bytes).
    Removing pwrmgr.o(.ARM.exidx.text.hal_pwrmgr_wakeup_process), (8 bytes).
    Removing pwrmgr.o(.ARM.exidx.text.hal_pwrmgr_sleep_process), (8 bytes).
    Removing pwrmgr.o(.ARM.exidx.text.hal_pwrmgr_RAM_retention_set), (8 bytes).
    Removing pwrmgr.o(.ARM.exidx.text.hal_pwrmgr_RAM_retention), (8 bytes).
    Removing pwrmgr.o(.text.hal_pwrmgr_RAM_retention_clr), (20 bytes).
    Removing pwrmgr.o(.ARM.exidx.text.hal_pwrmgr_RAM_retention_clr), (8 bytes).
    Removing pwrmgr.o(.text.hal_pwrmgr_LowCurrentLdo_enable), (52 bytes).
    Removing pwrmgr.o(.ARM.exidx.text.hal_pwrmgr_LowCurrentLdo_enable), (8 bytes).
    Removing pwrmgr.o(.text.hal_pwrmgr_LowCurrentLdo_disable), (20 bytes).
    Removing pwrmgr.o(.ARM.exidx.text.hal_pwrmgr_LowCurrentLdo_disable), (8 bytes).
    Removing pwrmgr.o(.text.hal_pwrmgr_poweroff), (84 bytes).
    Removing pwrmgr.o(.ARM.exidx.text.hal_pwrmgr_poweroff), (8 bytes).
    Removing pwrmgr.o(_section_standby_code_), (692 bytes).
    Removing pwrmgr.o(.ARM.exidx_section_standby_code_), (16 bytes).
    Removing pwrmgr.o(_section_standby_var_), (12 bytes).
    Removing my_printf.o(.text), (0 bytes).
    Removing my_printf.o(.text.dbg_printf), (1236 bytes).
    Removing my_printf.o(.ARM.exidx.text.dbg_printf), (8 bytes).
    Removing my_printf.o(.text.dbg_printf_init), (28 bytes).
    Removing my_printf.o(.ARM.exidx.text.dbg_printf_init), (8 bytes).
    Removing my_printf.o(.text.my_dump_byte), (48 bytes).
    Removing my_printf.o(.ARM.exidx.text.my_dump_byte), (8 bytes).
    Removing my_printf.o(.text.number), (676 bytes).
    Removing my_printf.o(.ARM.exidx.text.number), (8 bytes).
    Removing key.o(.text), (0 bytes).
    Removing key.o(.ARM.exidx.text.key_init), (8 bytes).
    Removing key.o(.ARM.exidx.text.pin_event_handler), (8 bytes).
    Removing key.o(.ARM.exidx.text.gpio_key_timer_handler), (8 bytes).
    Removing pwm.o(.text), (0 bytes).
    Removing pwm.o(.text.hal_pwm_init), (100 bytes).
    Removing pwm.o(.ARM.exidx.text.hal_pwm_init), (8 bytes).
    Removing pwm.o(.text.hal_pwm_open_channel), (44 bytes).
    Removing pwm.o(.ARM.exidx.text.hal_pwm_open_channel), (8 bytes).
    Removing pwm.o(.text.hal_pwm_close_channel), (48 bytes).
    Removing pwm.o(.ARM.exidx.text.hal_pwm_close_channel), (8 bytes).
    Removing pwm.o(.text.hal_pwm_destroy), (84 bytes).
    Removing pwm.o(.ARM.exidx.text.hal_pwm_destroy), (8 bytes).
    Removing pwm.o(.text.hal_pwm_set_count_val), (64 bytes).
    Removing pwm.o(.ARM.exidx.text.hal_pwm_set_count_val), (8 bytes).
    Removing pwm.o(.text.hal_pwm_start), (48 bytes).
    Removing pwm.o(.ARM.exidx.text.hal_pwm_start), (8 bytes).
    Removing pwm.o(.text.hal_pwm_stop), (56 bytes).
    Removing pwm.o(.ARM.exidx.text.hal_pwm_stop), (8 bytes).
    Removing pwm.o(.ARM.exidx.text.hal_pwm_module_init), (8 bytes).
    Removing pwm.o(.text.hal_pwm_module_deinit), (220 bytes).
    Removing pwm.o(.ARM.exidx.text.hal_pwm_module_deinit), (8 bytes).
    Removing pwm.o(.ARM.exidx.text.hal_pwm_ch_start), (8 bytes).
    Removing pwm.o(.ARM.exidx.text.hal_pwm_ch_stop), (8 bytes).
    Removing pwm.o(.text.hal_pwm_ch_enable), (12 bytes).
    Removing pwm.o(.ARM.exidx.text.hal_pwm_ch_enable), (8 bytes).
    Removing pwm.o(.text.hal_pwm_ch_reg), (24 bytes).
    Removing pwm.o(.ARM.exidx.text.hal_pwm_ch_reg), (8 bytes).
    Removing osal_snv.o(.text), (0 bytes).
    Removing osal_snv.o(.text.osal_snv_init), (4 bytes).
    Removing osal_snv.o(.ARM.exidx.text.osal_snv_init), (8 bytes).
    Removing osal_snv.o(.text.osal_snv_read), (4 bytes).
    Removing osal_snv.o(.ARM.exidx.text.osal_snv_read), (8 bytes).
    Removing osal_snv.o(.text.osal_snv_write), (4 bytes).
    Removing osal_snv.o(.ARM.exidx.text.osal_snv_write), (8 bytes).
    Removing osal_snv.o(.text.osal_snv_compact), (4 bytes).
    Removing osal_snv.o(.ARM.exidx.text.osal_snv_compact), (8 bytes).
    Removing flash.o(.text), (0 bytes).
    Removing flash.o(.ARM.exidx.text.hal_get_flash_info), (8 bytes).
    Removing flash.o(.ARM.exidx.text._spif_wait_nobusy_x), (8 bytes).
    Removing flash.o(.ARM.exidx.text.hal_spif_cache_init), (8 bytes).
    Removing flash.o(.ARM.exidx.text.hw_spif_cache_config), (8 bytes).
    Removing flash.o(.ARM.exidx.text.hal_flash_read), (8 bytes).
    Removing flash.o(.ARM.exidx.text.hal_flash_write), (8 bytes).
    Removing flash.o(.text.hal_flash_write_by_dma), (356 bytes).
    Removing flash.o(.ARM.exidx.text.hal_flash_write_by_dma), (8 bytes).
    Removing flash.o(.text.hal_flash_erase_sector), (500 bytes).
    Removing flash.o(.ARM.exidx.text.hal_flash_erase_sector), (8 bytes).
    Removing flash.o(.text.hal_flash_erase_block64), (500 bytes).
    Removing flash.o(.ARM.exidx.text.hal_flash_erase_block64), (8 bytes).
    Removing flash.o(.text.hal_flash_erase_all), (496 bytes).
    Removing flash.o(.ARM.exidx.text.hal_flash_erase_all), (8 bytes).
    Removing flash.o(.text.flash_write_word), (24 bytes).
    Removing flash.o(.ARM.exidx.text.flash_write_word), (8 bytes).
    Removing flash.o(.text.read_chip_mAddr), (140 bytes).
    Removing flash.o(.ARM.exidx.text.read_chip_mAddr), (8 bytes).
    Removing flash.o(.text.check_chip_mAddr), (32 bytes).
    Removing flash.o(.ARM.exidx.text.check_chip_mAddr), (8 bytes).
    Removing flash.o(.text.LOG_CHIP_MADDR), (2 bytes).
    Removing flash.o(.ARM.exidx.text.LOG_CHIP_MADDR), (8 bytes).
    Removing flash.o(.bss.g_chipMAddr), (7 bytes).
    Removing led_light.o(.text), (0 bytes).
    Removing led_light.o(.text.light_reflash), (64 bytes).
    Removing led_light.o(.ARM.exidx.text.light_reflash), (8 bytes).
    Removing led_light.o(.text.light_timeout_handle), (2 bytes).
    Removing led_light.o(.ARM.exidx.text.light_timeout_handle), (8 bytes).
    Removing led_light.o(.text.light_config), (32 bytes).
    Removing led_light.o(.ARM.exidx.text.light_config), (8 bytes).
    Removing led_light.o(.text.light_ctrl), (88 bytes).
    Removing led_light.o(.ARM.exidx.text.light_ctrl), (8 bytes).
    Removing led_light.o(.text.light_init), (144 bytes).
    Removing led_light.o(.ARM.exidx.text.light_init), (8 bytes).
    Removing led_light.o(.text.light_pwm_init), (72 bytes).
    Removing led_light.o(.ARM.exidx.text.light_pwm_init), (8 bytes).
    Removing led_light.o(.text.light_pwm_deinit), (56 bytes).
    Removing led_light.o(.ARM.exidx.text.light_pwm_deinit), (8 bytes).
    Removing led_light.o(.text.light_blink_evt_cfg), (24 bytes).
    Removing led_light.o(.ARM.exidx.text.light_blink_evt_cfg), (8 bytes).
    Removing led_light.o(.text.light_blink_set), (220 bytes).
    Removing led_light.o(.ARM.exidx.text.light_blink_set), (8 bytes).
    Removing led_light.o(.text.light_blink_porcess_evt), (308 bytes).
    Removing led_light.o(.ARM.exidx.text.light_blink_porcess_evt), (8 bytes).
    Removing led_light.o(.text.light_color_quickSet), (132 bytes).
    Removing led_light.o(.ARM.exidx.text.light_color_quickSet), (8 bytes).
    Removing led_light.o(.bss..L_MergedGlobals), (54 bytes).
    Removing fs.o(.text), (0 bytes).
    Removing fs.o(.text.hal_fs_get_free_size), (60 bytes).
    Removing fs.o(.ARM.exidx.text.hal_fs_get_free_size), (8 bytes).
    Removing fs.o(.text.hal_fs_get_garbage_size), (64 bytes).
    Removing fs.o(.ARM.exidx.text.hal_fs_get_garbage_size), (8 bytes).
    Removing fs.o(.ARM.exidx.text.fs_search_items), (8 bytes).
    Removing fs.o(.text.hal_fs_item_find_id), (40 bytes).
    Removing fs.o(.ARM.exidx.text.hal_fs_item_find_id), (8 bytes).
    Removing fs.o(.text.hal_fs_item_write), (432 bytes).
    Removing fs.o(.ARM.exidx.text.hal_fs_item_write), (8 bytes).
    Removing fs.o(.text.hal_fs_item_del), (296 bytes).
    Removing fs.o(.ARM.exidx.text.hal_fs_item_del), (8 bytes).
    Removing fs.o(.text.hal_fs_item_read), (248 bytes).
    Removing fs.o(.ARM.exidx.text.hal_fs_item_read), (8 bytes).
    Removing fs.o(.text.hal_fs_garbage_collect), (452 bytes).
    Removing fs.o(.ARM.exidx.text.hal_fs_garbage_collect), (8 bytes).
    Removing fs.o(.ARM.exidx.text.fs_init), (8 bytes).
    Removing fs.o(.text.hal_fs_format), (116 bytes).
    Removing fs.o(.ARM.exidx.text.hal_fs_format), (8 bytes).
    Removing fs.o(.ARM.exidx.text.hal_fs_init), (8 bytes).
    Removing fs.o(.text.hal_fs_initialized), (12 bytes).
    Removing fs.o(.ARM.exidx.text.hal_fs_initialized), (8 bytes).
    Removing gap.o(.text), (0 bytes).
    Removing gap.o(.ARM.exidx.text.GAP_DeviceInit), (8 bytes).
    Removing jump_table.o(.text), (0 bytes).
    Removing jump_table.o(.text._hard_fault), (84 bytes).
    Removing jump_table.o(.ARM.exidx.text._hard_fault), (8 bytes).
    Removing jump_table.o(.ARM.exidx.text.hard_fault), (8 bytes).
    Removing findmy.o(.text), (0 bytes).
    Removing findmy.o(.text.setAddrFromKey), (30 bytes).
    Removing findmy.o(.ARM.exidx.text.setAddrFromKey), (8 bytes).
    Removing findmy.o(.text.setPayloadFromKey), (24 bytes).
    Removing findmy.o(.ARM.exidx.text.setPayloadFromKey), (8 bytes).
    Removing findmy.o(.ARM.exidx.text.FindMy_Init), (8 bytes).
    Removing findmy.o(.ARM.exidx.text.findMy_keyPressEvt), (8 bytes).
    Removing findmy.o(.ARM.exidx.text.FindMy_ProcessEvent), (8 bytes).
    Removing findmy.o(.text.addr2Str), (128 bytes).
    Removing findmy.o(.ARM.exidx.text.addr2Str), (8 bytes).
    Removing findmy.o(.ARM.exidx.text.findMy_broadcasterEventCB), (8 bytes).
    Removing findmy.o(.ARM.exidx.text.findMy_observerEventCB), (8 bytes).
    Removing findmy.o(.rodata.str1.1), (17 bytes).
    Removing findmy.o(.bss.addr2Str.str), (16 bytes).
    Removing findmy_main.o(.text), (0 bytes).
    Removing findmy_main.o(.ARM.exidx.text.app_main), (8 bytes).
    Removing osal_findmy.o(.text), (0 bytes).
    Removing osal_findmy.o(.ARM.exidx.text.osalInitTasks), (8 bytes).
    Removing multi.o(.text), (0 bytes).
    Removing multi.o(.ARM.exidx.text.GAPRole_SetParameter), (8 bytes).
    Removing multi.o(.text.GAPRole_GetParameter), (220 bytes).
    Removing multi.o(.ARM.exidx.text.GAPRole_GetParameter), (8 bytes).
    Removing multi.o(.text.GAPRole_StartDevice), (56 bytes).
    Removing multi.o(.ARM.exidx.text.GAPRole_StartDevice), (8 bytes).
    Removing multi.o(.text.GAPRole_Init), (32 bytes).
    Removing multi.o(.ARM.exidx.text.GAPRole_Init), (8 bytes).
    Removing multi.o(.text.GAPRole_ProcessEvent), (160 bytes).
    Removing multi.o(.ARM.exidx.text.GAPRole_ProcessEvent), (8 bytes).
    Removing multi.o(.text.GAPObserverRole_StartDevice), (40 bytes).
    Removing multi.o(.ARM.exidx.text.GAPObserverRole_StartDevice), (8 bytes).
    Removing multi.o(.text.GAPObserverRole_SetParameter), (36 bytes).
    Removing multi.o(.ARM.exidx.text.GAPObserverRole_SetParameter), (8 bytes).
    Removing multi.o(.text.GAPObserverRole_GetParameter), (56 bytes).
    Removing multi.o(.ARM.exidx.text.GAPObserverRole_GetParameter), (8 bytes).
    Removing multi.o(.text.GAPObserverRole_StartDiscovery), (32 bytes).
    Removing multi.o(.ARM.exidx.text.GAPObserverRole_StartDiscovery), (8 bytes).
    Removing multi.o(.text.GAPObserverRole_CancelDiscovery), (16 bytes).
    Removing multi.o(.ARM.exidx.text.GAPObserverRole_CancelDiscovery), (8 bytes).
    Removing multi.o(.text.GAPObserverRole_Init), (16 bytes).
    Removing multi.o(.ARM.exidx.text.GAPObserverRole_Init), (8 bytes).
    Removing multi.o(.text.GAPObserverRole_ProcessEvent), (100 bytes).
    Removing multi.o(.ARM.exidx.text.GAPObserverRole_ProcessEvent), (8 bytes).
    Removing multi.o(.ARM.exidx.text.GAPMultiRole_StartDevice), (8 bytes).
    Removing multi.o(.ARM.exidx.text.GAPMultiRole_SetParameter), (8 bytes).
    Removing multi.o(.text.GAPMultiRole_GetParameter), (108 bytes).
    Removing multi.o(.ARM.exidx.text.GAPMultiRole_GetParameter), (8 bytes).
    Removing multi.o(.ARM.exidx.text.GAPMultiRole_StartDiscovery), (8 bytes).
    Removing multi.o(.ARM.exidx.text.GAPMultiRole_CancelDiscovery), (8 bytes).
    Removing multi.o(.ARM.exidx.text.GAPMultiRole_Init), (8 bytes).
    Removing multi.o(.ARM.exidx.text.GAPMultiRole_ProcessEvent), (8 bytes).
    Removing multi.o(.ARM.exidx.text.gapRole_ProcessGAPMsg), (8 bytes).
    Removing startup_armcm0.o(HEAP), (512 bytes).
    Removing system_armcm0.o(.text), (0 bytes).
    Removing system_armcm0.o(.text.SystemCoreClockUpdate), (16 bytes).
    Removing system_armcm0.o(.ARM.exidx.text.SystemCoreClockUpdate), (8 bytes).
    Removing system_armcm0.o(.ARM.exidx.text.SystemInit), (8 bytes).
    Removing patch.o(.rev16_text), (4 bytes).
    Removing patch.o(.revsh_text), (4 bytes).
    Removing patch.o(i.HCI_LE_LtkReqNegReplyCmd), (40 bytes).
    Removing patch.o(i.HCI_LE_LtkReqReplyCmd), (40 bytes).
    Removing patch.o(i.HCI_LE_SetHostChanClassificationCmd), (88 bytes).
    Removing patch.o(i.LL_CreateConn1), (64 bytes).
    Removing patch.o(i.LL_EncLtkNegReply), (76 bytes).
    Removing patch.o(i.LL_EncLtkReply), (88 bytes).
    Removing patch.o(i.LL_PLUS_GetCurrentPduDle), (56 bytes).
    Removing patch.o(i.LL_PLUS_GetCurrentRSSI), (22 bytes).
    Removing patch.o(i.LL_PLUS_LoadMACFromChipMAddr), (48 bytes).
    Removing patch.o(i.LL_PLUS_LoadMACFromFlash), (48 bytes).
    Removing patch.o(i.LL_SetScanControl1), (372 bytes).
    Removing patch.o(i.LL_SetScanParam1), (76 bytes).
    Removing patch.o(i.LL_StartEncrypt1), (232 bytes).
    Removing patch.o(i.LOG_PATCH_DATA_TIME), (2 bytes).
    Removing patch.o(i.chip_id_one_bit_hot_convter), (108 bytes).
    Removing patch.o(i.efuse_write_x), (196 bytes).
    Removing patch.o(i.enter_sleep_off_mode1), (20 bytes).
    Removing patch.o(i.l2capPocessFragmentTxData), (2 bytes).
    Removing patch.o(i.llAdjBoffUpperLimitFailure1), (56 bytes).
    Removing patch.o(i.llMasterEvt_TaskEndOk1), (348 bytes).
    Removing patch.o(i.llProcessMasterControlProcedures1), (1204 bytes).
    Removing patch.o(i.llProcessSlaveControlProcedures1), (848 bytes).
    Removing patch.o(i.llSetupSecScan1), (232 bytes).
    Removing patch.o(i.llSetupStartEncRsp), (64 bytes).
    Removing patch.o(i.ll_hw_read_rfifo1), (116 bytes).
    Removing patch.o(i.ll_patch_master), (132 bytes).
    Removing patch.o(i.ll_patch_multi), (56 bytes).
    Removing patch.o(i.ll_processBasicIRQ_SRX0), (2304 bytes).
    Removing patch.o(i.ll_processBasicIRQ_ScanTRX0), (476 bytes).
    Removing patch.o(i.ll_processBasicIRQ_secondaryAdvTRX0), (1064 bytes).
    Removing patch.o(i.ll_processBasicIRQ_secondaryInitSRX0), (1156 bytes).
    Removing patch.o(i.ll_processBasicIRQ_secondaryScanSRX0), (424 bytes).
    Removing patch.o(i.ll_scheduler1), (976 bytes).
    Removing patch.o(i.osal_memory_statics), (76 bytes).
    Removing patch.o(i.pplus_enter_programming_mode), (140 bytes).
    Removing patch.o(i.rflib_vesion), (18 bytes).
    Removing patch.o(.constdata), (12 bytes).
    Removing patch.o(.constdata), (9 bytes).
    Removing rf_phy_driver.o(.rev16_text), (4 bytes).
    Removing rf_phy_driver.o(.revsh_text), (4 bytes).
    Removing rf_phy_driver.o(i.DTM_UART_IRQHandler), (80 bytes).
    Removing rf_phy_driver.o(i.gen_pn_prbs9), (116 bytes).
    Removing rf_phy_driver.o(i.rf_phy_direct_test), (868 bytes).
    Removing rf_phy_driver.o(i.rf_phy_dtm_ble_pkt_gen), (132 bytes).
    Removing rf_phy_driver.o(i.rf_phy_dtm_cmd_parse), (980 bytes).
    Removing rf_phy_driver.o(i.rf_phy_dtm_evt_send), (236 bytes).
    Removing rf_phy_driver.o(i.rf_phy_dtm_ext_acc_code_set), (12 bytes).
    Removing rf_phy_driver.o(i.rf_phy_dtm_ext_rx_demod_burst), (388 bytes).
    Removing rf_phy_driver.o(i.rf_phy_dtm_ext_tx_mod_burst), (220 bytes).
    Removing rf_phy_driver.o(i.rf_phy_dtm_ext_tx_modulation), (116 bytes).
    Removing rf_phy_driver.o(i.rf_phy_dtm_ext_tx_singleTone), (108 bytes).
    Removing rf_phy_driver.o(i.rf_phy_dtm_init), (56 bytes).
    Removing rf_phy_driver.o(i.rf_phy_dtm_stop), (40 bytes).
    Removing rf_phy_driver.o(i.rf_phy_dtm_trigged), (824 bytes).
    Removing rf_phy_driver.o(i.rf_phy_dtm_zigbee_pkt_gen), (120 bytes).
    Removing rf_phy_driver.o(i.rf_phy_get_pktFoot), (48 bytes).
    Removing rf_phy_driver.o(i.rf_phy_get_pktFoot_fromPkt), (38 bytes).
    Removing rf_phy_driver.o(i.rf_tpCal_cfg), (56 bytes).
    Removing rf_phy_driver.o(i.rf_tpCal_cfg_avg), (192 bytes).
    Removing rf_phy_driver.o(.bss), (32 bytes).
    Removing rf_phy_driver.o(.data), (8 bytes).
    Removing gap_centdevmgr.o(.rev16_text), (4 bytes).
    Removing gap_centdevmgr.o(.revsh_text), (4 bytes).
    Removing gap_centdevmgr.o(i.GAP_CentConnRegister), (32 bytes).
    Removing gap_configmgr.o(.rev16_text), (4 bytes).
    Removing gap_configmgr.o(.revsh_text), (4 bytes).
    Removing gap_configmgr.o(i.GAP_ConfigDeviceAddr), (252 bytes).
    Removing gap_configmgr.o(i.GAP_SecParamsInit), (64 bytes).
    Removing gap_configmgr.o(i.gapGetDevAddress), (28 bytes).
    Removing gap_configmgr.o(i.gapGetDevAddressMode), (12 bytes).
    Removing gap_configmgr.o(i.gapGetSRK), (12 bytes).
    Removing gap_configmgr.o(i.gapGetSignCounter), (12 bytes).
    Removing gap_configmgr.o(i.gapIncSignCounter), (40 bytes).
    Removing gap_configmgr.o(i.gapSendSlaveSecurityReqEvent), (58 bytes).
    Removing gap_configmgr.o(i.gapUpdateConnSignCounter), (82 bytes).
    Removing gap_peridevmgr.o(.rev16_text), (4 bytes).
    Removing gap_peridevmgr.o(.revsh_text), (4 bytes).
    Removing gap_peridevmgr.o(i.GAP_GetAdvToken), (32 bytes).
    Removing gap_peridevmgr.o(i.GAP_RemoveAdvToken), (28 bytes).
    Removing gap_peridevmgr.o(i.GAP_SetAdvToken), (100 bytes).
    Removing gap_peridevmgr.o(i.GAP_UpdateAdvTokens), (28 bytes).
    Removing gap_peridevmgr.o(i.gapAddAdvToken), (60 bytes).
    Removing gap_peridevmgr.o(i.gapBuildADTokens), (200 bytes).
    Removing gap_peridevmgr.o(i.gapCalcAdvTokenDataLen), (64 bytes).
    Removing gap_peridevmgr.o(i.gapDeleteAdvToken), (60 bytes).
    Removing gap_peridevmgr.o(i.gapFindAdvToken), (28 bytes).
    Removing gap_task.o(.rev16_text), (4 bytes).
    Removing gap_task.o(.revsh_text), (4 bytes).
    Removing phy_sec_ext.o(.rev16_text), (4 bytes).
    Removing phy_sec_ext.o(.revsh_text), (4 bytes).
    Removing phy_sec_ext.o(i.PHY_Varify_Platform), (40 bytes).
    Removing phy_sec_ext.o(i.verify_mic), (32 bytes).
    Removing phy_sec_ext.o(.constdata), (16 bytes).
    Removing phy_sec_ext.o(.data), (1 bytes).
    Removing phy_sec_ext.o(.data), (1 bytes).
    Removing phy_sec_ext.o(.data), (1 bytes).
    Removing gap_centlinkmgr.o(.rev16_text), (4 bytes).
    Removing gap_centlinkmgr.o(.revsh_text), (4 bytes).
    Removing gap_centlinkmgr.o(i.GAP_EstablishLinkReq), (252 bytes).
    Removing gap_centlinkmgr.o(i.GAP_UpdateLinkParamReq), (80 bytes).
    Removing gap_devmgr.o(.rev16_text), (4 bytes).
    Removing gap_devmgr.o(.revsh_text), (4 bytes).
    Removing gap_devmgr.o(i.GAP_ResolvePrivateAddr), (8 bytes).
    Removing gap_devmgr.o(i.gapIsScanning), (16 bytes).
    Removing gap_linkmgr.o(.rev16_text), (4 bytes).
    Removing gap_linkmgr.o(.revsh_text), (4 bytes).
    Removing gap_linkmgr.o(i.GAP_Authenticate), (196 bytes).
    Removing gap_linkmgr.o(i.GAP_Bond), (136 bytes).
    Removing gap_linkmgr.o(i.GAP_PasscodeUpdate), (72 bytes).
    Removing gap_linkmgr.o(i.GAP_PasskeyUpdate), (52 bytes).
    Removing gap_linkmgr.o(i.GAP_Signable), (76 bytes).
    Removing gap_linkmgr.o(i.GAP_TerminateAuth), (32 bytes).
    Removing gap_linkmgr.o(i.GAP_TerminateLinkReq), (128 bytes).
    Removing gap_linkmgr.o(i.gapPairingCompleteCB), (300 bytes).
    Removing gap_linkmgr.o(i.gapPasskeyNeededCB), (100 bytes).
    Removing gap_linkmgr.o(i.gapRegisterCentralConn), (12 bytes).
    Removing gap_linkmgr.o(i.gapSendBondCompleteEvent), (68 bytes).
    Removing gap_linkmgr.o(i.gapSendPairingReqEvent), (92 bytes).
    Removing gap_linkmgr.o(i.sendAuthEvent), (236 bytes).
    Removing l2cap_if.o(.rev16_text), (4 bytes).
    Removing l2cap_if.o(.revsh_text), (4 bytes).
    Removing l2cap_if.o(i.L2CAP_ConnParamUpdateReq), (24 bytes).
    Removing l2cap_if.o(i.L2CAP_EchoReq), (40 bytes).
    Removing l2cap_if.o(i.L2CAP_HostNumCompletedPkts), (24 bytes).
    Removing l2cap_if.o(i.L2CAP_InfoReq), (24 bytes).
    Removing l2cap_if.o(i.L2CAP_SendData), (52 bytes).
    Removing l2cap_if.o(i.L2CAP_SetControllerToHostFlowCtrl), (52 bytes).
    Removing l2cap_if.o(i.L2CAP_SetControllerToHostFlowCtrl_DLE), (64 bytes).
    Removing l2cap_if.o(.data), (1 bytes).
    Removing linkdb.o(.rev16_text), (4 bytes).
    Removing linkdb.o(.revsh_text), (4 bytes).
    Removing linkdb.o(i.linkDB_Authen), (76 bytes).
    Removing linkdb.o(i.linkDB_PerformFunc), (44 bytes).
    Removing linkdb.o(i.linkDB_Register), (36 bytes).
    Removing linkdb.o(i.linkDB_State), (36 bytes).
    Removing linkdb.o(i.linkDB_Update), (34 bytes).
    Removing sm_mgr.o(.rev16_text), (4 bytes).
    Removing sm_mgr.o(.revsh_text), (4 bytes).
    Removing sm_mgr.o(i.SM_Encrypt), (68 bytes).
    Removing sm_mgr.o(i.SM_GenerateAuthenSig), (154 bytes).
    Removing sm_mgr.o(i.SM_NewRandKey), (60 bytes).
    Removing sm_mgr.o(i.SM_ResolveRandomAddrs), (76 bytes).
    Removing sm_mgr.o(i.SM_VerifyAuthenSig), (206 bytes).
    Removing sm_mgr.o(i.generate_subkey), (152 bytes).
    Removing sm_mgr.o(i.leftshift_onebit), (28 bytes).
    Removing sm_mgr.o(i.smAuthReqToUint8), (24 bytes).
    Removing sm_mgr.o(i.smEncryptLocal), (8 bytes).
    Removing sm_mgr.o(i.smInProcess), (16 bytes).
    Removing sm_mgr.o(i.smProcessRandComplete), (124 bytes).
    Removing sm_mgr.o(i.smStartRspTimer), (76 bytes).
    Removing sm_mgr.o(i.smStopRspTimer), (32 bytes).
    Removing sm_mgr.o(i.smUint8ToAuthReq), (44 bytes).
    Removing sm_mgr.o(i.sm_CMAC), (340 bytes).
    Removing sm_mgr.o(i.sm_c1new), (194 bytes).
    Removing sm_mgr.o(i.sm_d1), (60 bytes).
    Removing sm_mgr.o(i.sm_dm), (62 bytes).
    Removing sm_mgr.o(i.sm_s1), (64 bytes).
    Removing sm_mgr.o(i.sm_xor), (26 bytes).
    Removing sm_mgr.o(i.xor_128), (22 bytes).
    Removing sm_mgr.o(.bss), (15 bytes).
    Removing sm_mgr.o(.constdata), (16 bytes).
    Removing sm_mgr.o(.data), (4 bytes).
    Removing aes.o(.rev16_text), (4 bytes).
    Removing aes.o(.revsh_text), (4 bytes).
    Removing aes.o(i.AddRoundKey), (48 bytes).
    Removing aes.o(i.FFmul), (88 bytes).
    Removing aes.o(i.KeyExpansion), (700 bytes).
    Removing aes.o(i.MixColumns), (436 bytes).
    Removing aes.o(i.ShiftRows), (104 bytes).
    Removing aes.o(i.SubBytes), (68 bytes).
    Removing aes.o(i.affTrans), (252 bytes).
    Removing aes.o(i.flash_check_parition), (36 bytes).
    Removing aes.o(i.flash_load_parition), (36 bytes).
    Removing aes.o(i.getBit), (28 bytes).
    Removing aes.o(i.getByte), (28 bytes).
    Removing aes.o(i.is_crypto_app), (16 bytes).
    Removing aes.o(i.printfStats), (2 bytes).
    Removing aes.o(i.xor128bit), (24 bytes).
    Removing aes.o(i.xtime), (230 bytes).
    Removing aes.o(.constdata), (32 bytes).
    Removing aes.o(.data), (512 bytes).
    Removing att_util.o(.rev16_text), (4 bytes).
    Removing att_util.o(.revsh_text), (4 bytes).
    Removing att_util.o(i.ATT_BuildErrorRsp), (22 bytes).
    Removing att_util.o(i.ATT_BuildExchangeMTUReq), (14 bytes).
    Removing att_util.o(i.ATT_BuildExchangeMTURsp), (14 bytes).
    Removing att_util.o(i.ATT_BuildExecuteWriteReq), (8 bytes).
    Removing att_util.o(i.ATT_BuildFindByTypeValueReq), (64 bytes).
    Removing att_util.o(i.ATT_BuildFindByTypeValueRsp), (48 bytes).
    Removing att_util.o(i.ATT_BuildFindInfoReq), (24 bytes).
    Removing att_util.o(i.ATT_BuildFindInfoRsp), (108 bytes).
    Removing att_util.o(i.ATT_BuildHandleValueInd), (32 bytes).
    Removing att_util.o(i.ATT_BuildPrepareWriteReq), (42 bytes).
    Removing att_util.o(i.ATT_BuildPrepareWriteRsp), (42 bytes).
    Removing att_util.o(i.ATT_BuildReadBlobReq), (24 bytes).
    Removing att_util.o(i.ATT_BuildReadBlobRsp), (16 bytes).
    Removing att_util.o(i.ATT_BuildReadByGrpTypeRsp), (26 bytes).
    Removing att_util.o(i.ATT_BuildReadByTypeReq), (40 bytes).
    Removing att_util.o(i.ATT_BuildReadByTypeRsp), (26 bytes).
    Removing att_util.o(i.ATT_BuildReadMultiReq), (40 bytes).
    Removing att_util.o(i.ATT_BuildReadMultiRsp), (16 bytes).
    Removing att_util.o(i.ATT_BuildReadReq), (14 bytes).
    Removing att_util.o(i.ATT_BuildReadRsp), (16 bytes).
    Removing att_util.o(i.ATT_BuildWriteReq), (32 bytes).
    Removing att_util.o(i.ATT_CompareUUID), (74 bytes).
    Removing att_util.o(i.ATT_ConvertUUIDto128), (44 bytes).
    Removing att_util.o(i.ATT_ConvertUUIDto16), (68 bytes).
    Removing att_util.o(i.ATT_GetParamValue), (4 bytes).
    Removing att_util.o(i.ATT_InitMtuSize), (12 bytes).
    Removing att_util.o(i.ATT_ParseErrorRsp), (30 bytes).
    Removing att_util.o(i.ATT_ParseExchangeMTUReq), (24 bytes).
    Removing att_util.o(i.ATT_ParseExchangeMTURsp), (22 bytes).
    Removing att_util.o(i.ATT_ParseExecuteWriteReq), (18 bytes).
    Removing att_util.o(i.ATT_ParseExecuteWriteRsp), (12 bytes).
    Removing att_util.o(i.ATT_ParseFindByTypeValueReq), (72 bytes).
    Removing att_util.o(i.ATT_ParseFindByTypeValueRsp), (76 bytes).
    Removing att_util.o(i.ATT_ParseFindInfoReq), (34 bytes).
    Removing att_util.o(i.ATT_ParseFindInfoRsp), (156 bytes).
    Removing att_util.o(i.ATT_ParseHandleValueCfm), (12 bytes).
    Removing att_util.o(i.ATT_ParseHandleValueInd), (46 bytes).
    Removing att_util.o(i.ATT_ParsePacket), (94 bytes).
    Removing att_util.o(i.ATT_ParsePrepareWriteReq), (56 bytes).
    Removing att_util.o(i.ATT_ParsePrepareWriteRsp), (60 bytes).
    Removing att_util.o(i.ATT_ParseReadBlobReq), (34 bytes).
    Removing att_util.o(i.ATT_ParseReadBlobRsp), (30 bytes).
    Removing att_util.o(i.ATT_ParseReadByGrpTypeRsp), (56 bytes).
    Removing att_util.o(i.ATT_ParseReadByTypeReq), (60 bytes).
    Removing att_util.o(i.ATT_ParseReadByTypeRsp), (56 bytes).
    Removing att_util.o(i.ATT_ParseReadMultiReq), (68 bytes).
    Removing att_util.o(i.ATT_ParseReadMultiRsp), (30 bytes).
    Removing att_util.o(i.ATT_ParseReadReq), (24 bytes).
    Removing att_util.o(i.ATT_ParseReadRsp), (30 bytes).
    Removing att_util.o(i.ATT_ParseWriteReq), (66 bytes).
    Removing att_util.o(i.ATT_ParseWriteRsp), (12 bytes).
    Removing att_util.o(i.ATT_SetMTUSizeMax), (44 bytes).
    Removing att_util.o(i.ATT_SetParamValue), (2 bytes).
    Removing att_util.o(i.attSendMsg), (124 bytes).
    Removing att_util.o(.constdata), (16 bytes).
    Removing att_util.o(.data), (4 bytes).
    Removing l2cap_task.o(.rev16_text), (4 bytes).
    Removing l2cap_task.o(.revsh_text), (4 bytes).
    Removing l2cap_task.o(i.L2CAP_Init), (72 bytes).
    Removing l2cap_task.o(i.L2CAP_ProcessEvent), (52 bytes).
    Removing l2cap_task.o(i.l2capProcessRsp), (104 bytes).
    Removing l2cap_task.o(i.l2capProcessRxData), (148 bytes).
    Removing l2cap_task.o(i.l2capProcessSignal), (168 bytes).
    Removing l2cap_util.o(.rev16_text), (4 bytes).
    Removing l2cap_util.o(.revsh_text), (4 bytes).
    Removing l2cap_util.o(i.L2CAP_BuildInfoRsp), (68 bytes).
    Removing l2cap_util.o(i.L2CAP_ExtendFramgents_Config), (12 bytes).
    Removing l2cap_util.o(i.L2CAP_ParseInfoReq), (22 bytes).
    Removing l2cap_util.o(i.L2CAP_ParseParamUpdateReq), (52 bytes).
    Removing l2cap_util.o(i.l2capAllocChannel), (56 bytes).
    Removing l2cap_util.o(i.l2capBuildEchoReq), (28 bytes).
    Removing l2cap_util.o(i.l2capBuildEchoRsp), (26 bytes).
    Removing l2cap_util.o(i.l2capBuildInfoReq), (14 bytes).
    Removing l2cap_util.o(i.l2capBuildParamUpdateReq), (44 bytes).
    Removing l2cap_util.o(i.l2capFindLocalId), (48 bytes).
    Removing l2cap_util.o(i.l2capFreeChannel), (8 bytes).
    Removing l2cap_util.o(i.l2capHandleRxError), (2 bytes).
    Removing l2cap_util.o(i.l2capHandleTimerCB), (40 bytes).
    Removing l2cap_util.o(i.l2capNotifyData), (70 bytes).
    Removing l2cap_util.o(i.l2capNotifySignal), (78 bytes).
    Removing l2cap_util.o(i.l2capParseCmdReject), (66 bytes).
    Removing l2cap_util.o(i.l2capParseEchoRsp), (48 bytes).
    Removing l2cap_util.o(i.l2capParseInfoRsp), (96 bytes).
    Removing l2cap_util.o(i.l2capParsePacket), (416 bytes).
    Removing l2cap_util.o(i.l2capParseParamUpdateRsp), (22 bytes).
    Removing l2cap_util.o(i.l2capParseSignalHdr), (20 bytes).
    Removing l2cap_util.o(i.l2capSarBufReset), (88 bytes).
    Removing l2cap_util.o(i.l2capSendReq), (124 bytes).
    Removing l2cap_util.o(i.l2capStopTimer), (16 bytes).
    Removing l2cap_util.o(.data), (4 bytes).
    Removing sm_pairing.o(.rev16_text), (4 bytes).
    Removing sm_pairing.o(.revsh_text), (4 bytes).
    Removing sm_pairing.o(i.SM_PasskeyUpdate), (136 bytes).
    Removing sm_pairing.o(i.SM_StartPairing), (168 bytes).
    Removing sm_pairing.o(i.smDetermineKeySize), (44 bytes).
    Removing sm_pairing.o(i.smEndPairing), (52 bytes).
    Removing sm_pairing.o(i.smFreePairingParams), (92 bytes).
    Removing sm_pairing.o(i.smGenerateConfirm), (44 bytes).
    Removing sm_pairing.o(i.smGeneratePairingReqRsp), (64 bytes).
    Removing sm_pairing.o(i.smGenerateRandMsg), (44 bytes).
    Removing sm_pairing.o(i.smLinkCheck), (32 bytes).
    Removing sm_pairing.o(i.smNextPairingState), (64 bytes).
    Removing sm_pairing.o(i.smPairingSendEncInfo), (20 bytes).
    Removing sm_pairing.o(i.smPairingSendIdentityAddrInfo), (40 bytes).
    Removing sm_pairing.o(i.smPairingSendIdentityInfo), (20 bytes).
    Removing sm_pairing.o(i.smPairingSendMasterID), (44 bytes).
    Removing sm_pairing.o(i.smPairingSendSingingInfo), (20 bytes).
    Removing sm_pairing.o(i.smProcessDataMsg), (156 bytes).
    Removing sm_pairing.o(i.smProcessEncryptChange), (180 bytes).
    Removing sm_pairing.o(i.smProcessPairingReq), (88 bytes).
    Removing sm_pairing.o(i.smRegisterInitiator), (12 bytes).
    Removing sm_pairing.o(i.smRegisterResponder), (12 bytes).
    Removing sm_pairing.o(i.smSavePairInfo), (364 bytes).
    Removing sm_pairing.o(i.smSendFailAndEnd), (36 bytes).
    Removing sm_pairing.o(i.smSetPairingReqRsp), (64 bytes).
    Removing sm_pairing.o(i.smStartEncryption), (32 bytes).
    Removing sm_pairing.o(i.smTimedOut), (10 bytes).
    Removing sm_pairing.o(i.sm_c1), (152 bytes).
    Removing sm_pairing.o(i.smpProcessIncoming), (80 bytes).
    Removing sm_pairing.o(.constdata), (25 bytes).
    Removing sm_pairing.o(.data), (12 bytes).
    Removing sm_task.o(.rev16_text), (4 bytes).
    Removing sm_task.o(.revsh_text), (4 bytes).
    Removing sm_task.o(i.SM_Init), (36 bytes).
    Removing sm_task.o(i.SM_ProcessEvent), (72 bytes).
    Removing sm_task.o(i.smProcessOSALMsg), (148 bytes).
    Removing sm_task.o(i.smState_timerCB), (10 bytes).
    Removing sm_task.o(i.smTo_timerCB), (10 bytes).
    Removing sm_task.o(.data), (1 bytes).
    Removing smp.o(.rev16_text), (4 bytes).
    Removing smp.o(.revsh_text), (4 bytes).
    Removing smp.o(i.smSendSMMsg), (70 bytes).
    Removing smp.o(i.smpBuildEncInfo), (34 bytes).
    Removing smp.o(i.smpBuildIdentityAddrInfo), (38 bytes).
    Removing smp.o(i.smpBuildIdentityInfo), (34 bytes).
    Removing smp.o(i.smpBuildMasterID), (46 bytes).
    Removing smp.o(i.smpBuildPairingConfirm), (34 bytes).
    Removing smp.o(i.smpBuildPairingFailed), (24 bytes).
    Removing smp.o(i.smpBuildPairingRandom), (34 bytes).
    Removing smp.o(i.smpBuildPairingReq), (14 bytes).
    Removing smp.o(i.smpBuildPairingReqRsp), (132 bytes).
    Removing smp.o(i.smpBuildPairingRsp), (14 bytes).
    Removing smp.o(i.smpBuildSecurityReq), (30 bytes).
    Removing smp.o(i.smpBuildSigningInfo), (34 bytes).
    Removing smp.o(i.smpParseEncInfo), (30 bytes).
    Removing smp.o(i.smpParseIdentityAddrInfo), (34 bytes).
    Removing smp.o(i.smpParseIdentityInfo), (30 bytes).
    Removing smp.o(i.smpParseMasterID), (40 bytes).
    Removing smp.o(i.smpParsePairingConfirm), (30 bytes).
    Removing smp.o(i.smpParsePairingFailed), (32 bytes).
    Removing smp.o(i.smpParsePairingRandom), (30 bytes).
    Removing smp.o(i.smpParsePairingReq), (212 bytes).
    Removing smp.o(i.smpParseSecurityReq), (28 bytes).
    Removing smp.o(i.smpParseSigningInfo), (30 bytes).
    Removing patch.o(i.__ARM_common_switch8), (26 bytes).

655 unused section(s) (total 47951 bytes) removed from the image.

==============================================================================

Adding Veneers to the image

    Adding TT veneer (12 bytes, Long) for call to 'key_init' from findmy.o(.text.FindMy_Init).
    Adding TT veneer (12 bytes, Long) for call to 'osal_memcpy' from findmy.o(.text.FindMy_Init).
    Adding TT veneer (12 bytes, Long) for call to 'osal_set_event' from findmy.o(.text.FindMy_Init).
    Adding TT veneer (12 bytes, Long) for call to 'LL_PLUS_PerStats_Init' from findmy.o(.text.FindMy_Init).
    Adding TT veneer (12 bytes, Long) for call to 'gpio_key_timer_handler' from findmy.o(.text.FindMy_ProcessEvent).
    Adding TT veneer (12 bytes, Long) for call to '__aeabi_idivmod' from findmy.o(.text.FindMy_ProcessEvent).
    Adding TT veneer (12 bytes, Long) for call to 'osal_start_timerEx' from findmy.o(.text.FindMy_ProcessEvent).
    Adding TT veneer (12 bytes, Long) for call to 'osal_msg_receive' from multi.o(.text.GAPMultiRole_ProcessEvent).
    Adding TT veneer (12 bytes, Long) for call to 'osal_msg_deallocate' from multi.o(.text.GAPMultiRole_ProcessEvent).
    Adding TT veneer (12 bytes, Long) for call to 'osal_memset' from multi.o(.text.GAPRole_SetParameter).
    Adding TT veneer (12 bytes, Long) for call to 'osal_stop_timerEx' from findmy.o(.text.findMy_keyPressEvt).
    Adding TT veneer (12 bytes, Long) for call to 'strstr' from findmy.o(.text.findMy_observerEventCB).
    Adding TT veneer (12 bytes, Long) for call to '__aeabi_memclr4' from gpio.o(.text.hal_gpio_init).
    Adding TT veneer (12 bytes, Long) for call to 'hal_pwrmgr_register' from gpio.o(.text.hal_gpio_init).
    Adding TT veneer (12 bytes, Long) for call to 'hal_clk_gate_enable' from pwm.o(.text.hal_pwm_ch_start).
    Adding TT veneer (12 bytes, Long) for call to 'hal_pwrmgr_lock' from pwm.o(.text.hal_pwm_ch_start).
    Adding TT veneer (12 bytes, Long) for call to 'hal_pwrmgr_unlock' from pwm.o(.text.hal_pwm_module_init).
    Adding TT veneer (12 bytes, Long) for call to 'hal_clk_gate_disable' from pwm.o(.text.hal_pwm_module_init).
    Adding TT veneer (12 bytes, Long) for call to 'enableSleep' from patch.o(_section_xip_code_).
    Adding TT veneer (12 bytes, Long) for call to 'setSleepMode' from patch.o(_section_xip_code_).
    Adding TT veneer (12 bytes, Long) for call to 'WaitRTCCount' from patch.o(_section_xip_code_).
    Adding TT veneer (12 bytes, Long) for call to 'LL_ENC_AES128_Encrypt' from patch.o(_section_xip_code_).
    Adding TT veneer (12 bytes, Long) for call to 'read_current_fine_time' from patch.o(_section_xip_code_).
    Adding TT veneer (12 bytes, Long) for call to 'osal_mem_alloc' from gap_centdevmgr.o(i.GAP_DeviceDiscoveryRequest).
    Adding TT veneer (12 bytes, Long) for call to 'HCI_LE_SetScanParamCmd' from gap_centdevmgr.o(i.GAP_DeviceDiscoveryRequest).
    Adding TT veneer (12 bytes, Long) for call to 'HCI_LE_SetAdvEnableCmd' from gap_peridevmgr.o(i.GAP_EndDiscoverable).
    Adding TT veneer (12 bytes, Long) for call to 'HCI_GAPTaskRegister' from gap_task.o(i.GAP_Init).
    Adding TT veneer (12 bytes, Long) for call to 'osal_start_reload_timer' from gap_peridevmgr.o(i.GAP_MakeDiscoverable).
    Adding TT veneer (12 bytes, Long) for call to 'HCI_ReadBDADDRCmd' from gap_configmgr.o(i.GAP_ParamsInit).
    Adding TT veneer (12 bytes, Long) for call to 'osal_mem_free' from gap_peridevmgr.o(i.GAP_PeriDevMgrInit).
    Adding TT veneer (12 bytes, Long) for call to 'osal_msg_send' from gap_task.o(i.GAP_ProcessEvent).
    Adding TT veneer (12 bytes, Long) for call to 'HCI_LE_SetAdvDataCmd' from gap_peridevmgr.o(i.GAP_UpdateAdvertisingData).
    Adding TT veneer (12 bytes, Long) for call to 'HCI_LE_SetScanRspDataCmd' from gap_peridevmgr.o(i.GAP_UpdateAdvertisingData).
    Adding TT veneer (12 bytes, Long) for call to 'LL_TX_bm_alloc' from l2cap_util.o(i.L2CAP_Fragment_bm_alloc).
    Adding TT veneer (12 bytes, Long) for call to 'osal_bm_free' from l2cap_util.o(i.L2CAP_ReassemblePkt_Reset).
    Adding TT veneer (12 bytes, Long) for call to 'HCI_bm_alloc' from l2cap_util.o(i.L2CAP_bm_alloc).
    Adding TT veneer (12 bytes, Long) for call to 'osal_bm_adjust_header' from l2cap_util.o(i.L2CAP_bm_alloc).
    Adding TT veneer (12 bytes, Long) for call to 'HCI_DisconnectCmd' from gap_linkmgr.o(i.disconnectNext).
    Adding TT veneer (12 bytes, Long) for call to 'HCI_LE_CreateConnCancelCmd' from gap_centlinkmgr.o(i.gapCancelLinkReq).
    Adding TT veneer (12 bytes, Long) for call to 'osal_memcmp' from gap_centdevmgr.o(i.gapFindScanRec).
    Adding TT veneer (12 bytes, Long) for call to '__ARM_common_switch8' from gap_peridevmgr.o(i.gapPeriProcessHCICmdCompleteEvt).
    Adding TT veneer (12 bytes, Long) for call to 'HCI_ValidConnTimeParams' from gap_centlinkmgr.o(i.gapProcessL2CAPSignalEvt).
    Adding TT veneer (12 bytes, Long) for call to 'HCI_LE_ConnUpdateCmd' from gap_centlinkmgr.o(i.gapProcessL2CAPSignalEvt).
    Adding TT veneer (12 bytes, Long) for call to 'HCI_LE_SetRandomAddressCmd' from gap_configmgr.o(i.gapProcessNewAddr).
    Adding TT veneer (12 bytes, Long) for call to 'osal_msg_allocate' from gap_configmgr.o(i.gapProcessRandomAddrComplete).
    Adding TT veneer (12 bytes, Long) for call to 'HCI_LE_ReadBufSizeCmd' from gap_configmgr.o(i.gapReadBD_ADDRStatus).
    Adding TT veneer (12 bytes, Long) for call to 'HCI_LE_SetScanEnableCmd' from gap_centdevmgr.o(i.gapSendScanEnable).
    Adding TT veneer (12 bytes, Long) for call to 'HCI_LE_SetAdvParamCmd' from gap_peridevmgr.o(i.gapSetAdvParams).
    Adding TT veneer (12 bytes, Long) for call to 'l2capSegmentBuffToLinkLayer' from l2cap_util.o(i.l2capEncapSendData).
    Adding TT veneer (12 bytes, Long) for call to 'L2CAP_Fragment_SendDataPkt' from l2cap_util.o(i.l2capPktToSegmentBuff).
    Adding TT veneer (12 bytes, Long) for call to '__aeabi_uidivmod' from l2cap_util.o(i.l2capPktToSegmentBuff).
    Adding TT veneer (12 bytes, Long) for call to 'LL_Encrypt' from sm_mgr.o(i.smEncrypt).
    Adding TT veneer (12 bytes, Long) for call to 'osal_rand' from sm_mgr.o(i.smGenerateRandBuf).
    Adding TT veneer (12 bytes, Long) for call to 'osal_revmemcpy' from sm_mgr.o(i.sm_ah).
    Adding TT veneer (12 bytes, Long) for call to 'spif_cmd' from flash.o(.text._spif_wait_nobusy_x).
    Adding TT veneer (12 bytes, Long) for call to 'spif_rddata' from flash.o(.text._spif_wait_nobusy_x).
    Adding TT veneer (12 bytes, Long) for call to 'WaitRTCCount' from flash.o(.text._spif_wait_nobusy_x).
    Adding TT veneer (12 bytes, Long) for call to 'osal_init_system' from findmy_main.o(.text.app_main).
    Adding TT veneer (12 bytes, Long) for call to 'osal_pwrmgr_device' from findmy_main.o(.text.app_main).
    Adding TT veneer (12 bytes, Long) for call to 'osal_start_system' from findmy_main.o(.text.app_main).
    Adding TT veneer (12 bytes, Long) for call to 'osal_memset' from fs.o(.text.fs_init).
    Adding TT veneer (12 bytes, Long) for call to '__aeabi_uidivmod' from fs.o(.text.fs_init).
    Adding TT veneer (12 bytes, Long) for call to 'hal_gpio_read' from key.o(.text.gpio_key_timer_handler).
    Adding TT veneer (12 bytes, Long) for call to 'osal_stop_timerEx' from key.o(.text.gpio_key_timer_handler).
    Adding TT veneer (12 bytes, Long) for call to 'getMcuPrecisionCount' from key.o(.text.gpio_key_timer_handler).
    Adding TT veneer (12 bytes, Long) for call to 'osal_start_timerEx' from key.o(.text.gpio_key_timer_handler).
    Adding TT veneer (12 bytes, Long) for call to 'drv_disable_irq' from flash.o(.text.hal_flash_read).
    Adding TT veneer (12 bytes, Long) for call to 'drv_enable_irq' from flash.o(.text.hal_flash_read).
    Adding TT veneer (12 bytes, Long) for call to 'spif_write' from flash.o(.text.hal_flash_write).
    Adding TT veneer (12 bytes, Long) for call to '__aeabi_memclr4' from pwrmgr.o(.text.hal_pwrmgr_init).
    Adding TT veneer (12 bytes, Long) for call to 'enableSleep' from pwrmgr.o(.text.hal_pwrmgr_init).
    Adding TT veneer (12 bytes, Long) for call to 'disableSleep' from pwrmgr.o(.text.hal_pwrmgr_lock).
    Adding TT veneer (12 bytes, Long) for call to 'hal_gpio_pull_set' from clock.o(.text.hal_rtc_clock_config).
    Adding TT veneer (12 bytes, Long) for call to 'log_printf' from jump_table.o(.text.hard_fault).
    Adding TT veneer (12 bytes, Long) for call to 'spif_config' from flash.o(.text.hw_spif_cache_config).
    Adding TT veneer (12 bytes, Long) for call to 'hal_gpioin_register' from key.o(.text.key_init).
    Adding TT veneer (12 bytes, Long) for call to 'drv_irq_init' from main.o(.text.main).
    Adding TT veneer (12 bytes, Long) for call to 'init_config' from main.o(.text.main).
    Adding TT veneer (12 bytes, Long) for call to 'osal_mem_set_heap' from main.o(.text.main).
    Adding TT veneer (12 bytes, Long) for call to 'LL_InitConnectContext' from main.o(.text.main).
    Adding TT veneer (12 bytes, Long) for call to 'clk_init' from main.o(.text.main).
    Adding TT veneer (12 bytes, Long) for call to 'hal_gpio_init' from main.o(.text.main).
    Adding TT veneer (12 bytes, Long) for call to 'hal_pwm_module_init' from main.o(.text.main).
    Adding TT veneer (12 bytes, Long) for call to 'osal_mem_alloc' from osal_findmy.o(.text.osalInitTasks).
    Adding TT veneer (12 bytes, Long) for call to 'LL_Init' from osal_findmy.o(.text.osalInitTasks).
    Adding TT veneer (12 bytes, Long) for call to 'HCI_Init' from osal_findmy.o(.text.osalInitTasks).
    Adding TT veneer (12 bytes, Long) for call to 'osal_CbTimerInit' from osal_findmy.o(.text.osalInitTasks).
    Adding TT veneer (12 bytes, Long) for call to 'GAP_Init' from osal_findmy.o(.text.osalInitTasks).
    Adding TT veneer (12 bytes, Long) for call to 'GAPMultiRole_Init' from osal_findmy.o(.text.osalInitTasks).
    Adding TT veneer (12 bytes, Long) for call to 'FindMy_Init' from osal_findmy.o(.text.osalInitTasks).
    Adding TT veneer (12 bytes, Long) for call to 'osal_pwrmgr_powerconserve0' from pwrmgr.o(_section_sram_code_).
    Adding TT veneer (12 bytes, Long) for call to 'config_RTC' from pwrmgr.o(_section_sram_code_).
    Adding TT veneer (12 bytes, Long) for call to 'enter_sleep_off_mode' from pwrmgr.o(_section_sram_code_).
    Adding TT veneer (12 bytes, Long) for call to 'HCI_SendDataPkt' from l2cap_util.o(_section_sram_code_).
    Adding TT veneer (12 bytes, Long) for call to 'HCI_CommandStatusEvent' from patch.o(i.HCI_LE_ConnUpdateCmd).
    Adding TT veneer (12 bytes, Long) for call to 'LL_ConnActive' from patch.o(i.LL_ConnUpdate1).
    Adding TT veneer (12 bytes, Long) for call to 'llEnqueueCtrlPkt' from patch.o(i.LL_ConnUpdate1).
    Adding TT veneer (12 bytes, Long) for call to 'LL_ENC_AES128_Encrypt0' from patch.o(i.LL_ENC_AES128_Encrypt1).
    Adding TT veneer (12 bytes, Long) for call to 'LL_ENC_LoadKey' from patch.o(i.LL_ENC_Decrypt1).
    Adding TT veneer (12 bytes, Long) for call to 'LL_ENC_GenerateNonce' from patch.o(i.LL_ENC_Decrypt1).
    Adding TT veneer (12 bytes, Long) for call to '__aeabi_uread4' from patch.o(i.LL_ENC_Decrypt1).
    Adding TT veneer (12 bytes, Long) for call to 'read_current_fine_time' from patch.o(i.LL_IRQHandler1).
    Adding TT veneer (12 bytes, Long) for call to 'll_debug_output' from patch.o(i.LL_IRQHandler1).
    Adding TT veneer (12 bytes, Long) for call to 'll_hw_get_irq_status' from patch.o(i.LL_IRQHandler1).
    Adding TT veneer (12 bytes, Long) for call to 'll_hw_get_tr_mode' from patch.o(i.LL_IRQHandler1).
    Adding TT veneer (12 bytes, Long) for call to 'll_hw_clr_irq' from patch.o(i.LL_IRQHandler1).
    Adding TT veneer (12 bytes, Long) for call to 'll_processExtAdvIRQ' from patch.o(i.LL_IRQHandler1).
    Adding TT veneer (12 bytes, Long) for call to 'll_processExtScanIRQ' from patch.o(i.LL_IRQHandler1).
    Adding TT veneer (12 bytes, Long) for call to 'll_processExtInitIRQ' from patch.o(i.LL_IRQHandler1).
    Adding TT veneer (12 bytes, Long) for call to 'll_processPrdAdvIRQ' from patch.o(i.LL_IRQHandler1).
    Adding TT veneer (12 bytes, Long) for call to 'll_processPrdScanIRQ' from patch.o(i.LL_IRQHandler1).
    Adding TT veneer (12 bytes, Long) for call to 'll_processBasicIRQ' from patch.o(i.LL_IRQHandler1).
    Adding TT veneer (12 bytes, Long) for call to 'll_schedule_next_event' from patch.o(i.LL_IRQHandler1).
    Adding TT veneer (12 bytes, Long) for call to 'llSecAdvAllow' from patch.o(i.LL_IRQHandler1).
    Adding TT veneer (12 bytes, Long) for call to 'llSetupSecAdvEvt' from patch.o(i.LL_IRQHandler1).
    Adding TT veneer (12 bytes, Long) for call to 'll_hw_set_rx_timeout' from patch.o(i.LL_IRQHandler1).
    Adding TT veneer (12 bytes, Long) for call to 'llSetupSecScan' from patch.o(i.LL_IRQHandler1).
    Adding TT veneer (12 bytes, Long) for call to 'llSetupSecInit' from patch.o(i.LL_IRQHandler1).
    Adding TT veneer (12 bytes, Long) for call to '__ARM_common_switch8' from patch.o(i.LL_SetAdvControl1).
    Adding TT veneer (12 bytes, Long) for call to 'llSetupAdv' from patch.o(i.LL_SetAdvControl1).
    Adding TT veneer (12 bytes, Long) for call to 'osal_set_event' from patch.o(i.LL_SetAdvControl1).
    Adding TT veneer (12 bytes, Long) for call to 'clear_timer' from patch.o(i.LL_SetAdvControl1).
    Adding TT veneer (12 bytes, Long) for call to 'LL_SetAdvParam0' from patch.o(i.LL_SetAdvParam1).
    Adding TT veneer (12 bytes, Long) for call to 'LL_SetDataLengh0' from patch.o(i.LL_SetDataLengh1).
    Adding TT veneer (12 bytes, Long) for call to 'LL_set_default_conn_params0' from patch.o(i.LL_set_default_conn_params1).
    Adding TT veneer (12 bytes, Long) for call to 'efuse_read' from phy_sec_ext.o(i._efuse_chip_version_check).
    Adding TT veneer (12 bytes, Long) for call to 'rtc_get_counter' from patch.o(i.check_16MXtal_by_rcTracking).
    Adding TT veneer (12 bytes, Long) for call to 'set_sleep_flag' from patch.o(i.check_16MXtal_by_rcTracking).
    Adding TT veneer (12 bytes, Long) for call to 'read_LL_remainder_time' from patch.o(i.config_RTC1).
    Adding TT veneer (12 bytes, Long) for call to 'enterSleepProcess0' from patch.o(i.enterSleepProcess1).
    Adding TT veneer (12 bytes, Long) for call to 'osal_memcmp' from phy_sec_ext.o(i.finidv).
    Adding TT veneer (12 bytes, Long) for call to 'llConnTerminate0' from patch.o(i.llConnTerminate1).
    Adding TT veneer (12 bytes, Long) for call to 'llProcessChanMap' from patch.o(i.llConnTerminate1).
    Adding TT veneer (12 bytes, Long) for call to 'llProcessTxData0' from patch.o(i.llProcessTxData1).
    Adding TT veneer (12 bytes, Long) for call to 'llSetupNextSlaveEvent0' from patch.o(i.llSetupNextSlaveEvent1).
    Adding TT veneer (12 bytes, Long) for call to 'llSetupSecConnectableAdvEvt' from patch.o(i.llSetupSecAdvEvt1).
    Adding TT veneer (12 bytes, Long) for call to 'llSetupSecNonConnectableAdvEvt' from patch.o(i.llSetupSecAdvEvt1).
    Adding TT veneer (12 bytes, Long) for call to 'llSetupSecScannableAdvEvt' from patch.o(i.llSetupSecAdvEvt1).
    Adding TT veneer (12 bytes, Long) for call to 'll_hw_get_loop_cycle' from patch.o(i.ll_adptive_adj_next_time1).
    Adding TT veneer (12 bytes, Long) for call to 'll_hw_get_anchor' from patch.o(i.ll_adptive_adj_next_time1).
    Adding TT veneer (12 bytes, Long) for call to 'll_hw_write_tfifo' from patch.o(i.ll_generateTxBuffer1).
    Adding TT veneer (12 bytes, Long) for call to 'll_hw_get_tfifo_wrptr' from patch.o(i.ll_generateTxBuffer1).
    Adding TT veneer (12 bytes, Long) for call to 'getTxBufferSize' from patch.o(i.ll_generateTxBuffer1).
    Adding TT veneer (12 bytes, Long) for call to 'get_tx_read_ptr' from patch.o(i.ll_generateTxBuffer1).
    Adding TT veneer (12 bytes, Long) for call to 'update_tx_read_ptr' from patch.o(i.ll_generateTxBuffer1).
    Adding TT veneer (12 bytes, Long) for call to 'osal_memcpy' from patch.o(i.ll_hw_go1).
    Adding TT veneer (12 bytes, Long) for call to 'set_max_length' from patch.o(i.ll_hw_go1).
    Adding TT veneer (12 bytes, Long) for call to 'll_scheduler0' from patch.o(i.ll_scheduler2).
    Adding TT veneer (12 bytes, Long) for call to 'll_hw_set_crc_fmt' from rf_phy_driver.o(i.rf_phy_bb_cfg).
    Adding TT veneer (12 bytes, Long) for call to 'll_hw_tx2rx_timing_config' from rf_phy_driver.o(i.rf_phy_ini).
    Adding TT veneer (12 bytes, Long) for call to 'osalTimeUpdate' from patch.o(i.wakeupProcess1).
    Adding TT veneer (12 bytes, Long) for call to 'set_timer' from patch.o(i.wakeupProcess1).
    Adding TT veneer (12 bytes, Long) for call to 'app_wakeup_process' from patch.o(i.wakeupProcess1).
    Adding TT veneer (12 bytes, Long) for call to 'll_hw_set_empty_head' from patch.o(i.wakeup_init1).
    Adding TT veneer (12 bytes, Long) for call to 'll_hw_set_rx_timeout_1st' from patch.o(i.wakeup_init1).
    Adding TT veneer (12 bytes, Long) for call to 'll_hw_set_loop_timeout' from patch.o(i.wakeup_init1).
    Adding TT veneer (12 bytes, Long) for call to 'll_hw_set_timing' from patch.o(i.wakeup_init1).
    Adding TT veneer (12 bytes, Long) for call to 'll_hw_ign_rfifo' from patch.o(i.wakeup_init1).

158 Veneer(s) (total 1896 bytes) added to the image.

==============================================================================

Image Symbol Table

    Local Symbols

    Symbol Name                              Value     Ov Type        Size  Object(Section)

    ../clib/../cmprslib/zerorunl.c           0x00000000   Number         0  __dczerorl.o ABSOLUTE
    ../clib/microlib/init/entry.s            0x00000000   Number         0  entry.o ABSOLUTE
    ../clib/microlib/init/entry.s            0x00000000   Number         0  entry2.o ABSOLUTE
    ../clib/microlib/init/entry.s            0x00000000   Number         0  entry5.o ABSOLUTE
    ../clib/microlib/init/entry.s            0x00000000   Number         0  entry7a.o ABSOLUTE
    ../clib/microlib/init/entry.s            0x00000000   Number         0  entry7b.o ABSOLUTE
    ../clib/microlib/init/entry.s            0x00000000   Number         0  entry8a.o ABSOLUTE
    ../clib/microlib/init/entry.s            0x00000000   Number         0  entry8b.o ABSOLUTE
    ../clib/microlib/init/entry.s            0x00000000   Number         0  entry9a.o ABSOLUTE
    ../clib/microlib/init/entry.s            0x00000000   Number         0  entry9b.o ABSOLUTE
    ../clib/microlib/init/entry.s            0x00000000   Number         0  entry10a.o ABSOLUTE
    ../clib/microlib/init/entry.s            0x00000000   Number         0  entry10b.o ABSOLUTE
    ../clib/microlib/init/entry.s            0x00000000   Number         0  entry11a.o ABSOLUTE
    ../clib/microlib/init/entry.s            0x00000000   Number         0  entry11b.o ABSOLUTE
    ../clib/microlib/string/strstr.c         0x00000000   Number         0  strstr.o ABSOLUTE
    ..\..\components\ble_src\controller\rf_phy_driver.c 0x00000000   Number         0  rf_phy_driver.o ABSOLUTE
    ..\..\components\ble_src\host\att_util.c 0x00000000   Number         0  att_util.o ABSOLUTE
    ..\..\components\ble_src\host\gap_centdevmgr.c 0x00000000   Number         0  gap_centdevmgr.o ABSOLUTE
    ..\..\components\ble_src\host\gap_centlinkmgr.c 0x00000000   Number         0  gap_centlinkmgr.o ABSOLUTE
    ..\..\components\ble_src\host\gap_configmgr.c 0x00000000   Number         0  gap_configmgr.o ABSOLUTE
    ..\..\components\ble_src\host\gap_devmgr.c 0x00000000   Number         0  gap_devmgr.o ABSOLUTE
    ..\..\components\ble_src\host\gap_linkmgr.c 0x00000000   Number         0  gap_linkmgr.o ABSOLUTE
    ..\..\components\ble_src\host\gap_peridevmgr.c 0x00000000   Number         0  gap_peridevmgr.o ABSOLUTE
    ..\..\components\ble_src\host\gap_task.c 0x00000000   Number         0  gap_task.o ABSOLUTE
    ..\..\components\ble_src\host\l2cap_if.c 0x00000000   Number         0  l2cap_if.o ABSOLUTE
    ..\..\components\ble_src\host\l2cap_task.c 0x00000000   Number         0  l2cap_task.o ABSOLUTE
    ..\..\components\ble_src\host\l2cap_util.c 0x00000000   Number         0  l2cap_util.o ABSOLUTE
    ..\..\components\ble_src\host\linkdb.c   0x00000000   Number         0  linkdb.o ABSOLUTE
    ..\..\components\ble_src\host\sm_mgr.c   0x00000000   Number         0  sm_mgr.o ABSOLUTE
    ..\..\components\ble_src\host\sm_pairing.c 0x00000000   Number         0  sm_pairing.o ABSOLUTE
    ..\..\components\ble_src\host\sm_task.c  0x00000000   Number         0  sm_task.o ABSOLUTE
    ..\..\components\ble_src\host\smp.c      0x00000000   Number         0  smp.o ABSOLUTE
    ..\\..\\components\\ble_src\\controller\\rf_phy_driver.c 0x00000000   Number         0  rf_phy_driver.o ABSOLUTE
    ..\\..\\components\\ble_src\\host\\att_util.c 0x00000000   Number         0  att_util.o ABSOLUTE
    ..\\..\\components\\ble_src\\host\\gap_centdevmgr.c 0x00000000   Number         0  gap_centdevmgr.o ABSOLUTE
    ..\\..\\components\\ble_src\\host\\gap_centlinkmgr.c 0x00000000   Number         0  gap_centlinkmgr.o ABSOLUTE
    ..\\..\\components\\ble_src\\host\\gap_configmgr.c 0x00000000   Number         0  gap_configmgr.o ABSOLUTE
    ..\\..\\components\\ble_src\\host\\gap_devmgr.c 0x00000000   Number         0  gap_devmgr.o ABSOLUTE
    ..\\..\\components\\ble_src\\host\\gap_linkmgr.c 0x00000000   Number         0  gap_linkmgr.o ABSOLUTE
    ..\\..\\components\\ble_src\\host\\gap_peridevmgr.c 0x00000000   Number         0  gap_peridevmgr.o ABSOLUTE
    ..\\..\\components\\ble_src\\host\\gap_task.c 0x00000000   Number         0  gap_task.o ABSOLUTE
    ..\\..\\components\\ble_src\\host\\l2cap_if.c 0x00000000   Number         0  l2cap_if.o ABSOLUTE
    ..\\..\\components\\ble_src\\host\\l2cap_task.c 0x00000000   Number         0  l2cap_task.o ABSOLUTE
    ..\\..\\components\\ble_src\\host\\l2cap_util.c 0x00000000   Number         0  l2cap_util.o ABSOLUTE
    ..\\..\\components\\ble_src\\host\\linkdb.c 0x00000000   Number         0  linkdb.o ABSOLUTE
    ..\\..\\components\\ble_src\\host\\sm_mgr.c 0x00000000   Number         0  sm_mgr.o ABSOLUTE
    ..\\..\\components\\ble_src\\host\\sm_pairing.c 0x00000000   Number         0  sm_pairing.o ABSOLUTE
    ..\\..\\components\\ble_src\\host\\sm_task.c 0x00000000   Number         0  sm_task.o ABSOLUTE
    ..\\..\\components\\ble_src\\host\\smp.c 0x00000000   Number         0  smp.o ABSOLUTE
    FindMy.c                                 0x00000000   Number         0  findmy.o ABSOLUTE
    FindMy_Main.c                            0x00000000   Number         0  findmy_main.o ABSOLUTE
    Multi.c                                  0x00000000   Number         0  multi.o ABSOLUTE
    OSAL_FindMy.c                            0x00000000   Number         0  osal_findmy.o ABSOLUTE
    RTE/Device/ARMCM0/startup_ARMCM0.s       0x00000000   Number         0  startup_armcm0.o ABSOLUTE
    clock.c                                  0x00000000   Number         0  clock.o ABSOLUTE
    dc.s                                     0x00000000   Number         0  dc.o ABSOLUTE
    flash.c                                  0x00000000   Number         0  flash.o ABSOLUTE
    fs.c                                     0x00000000   Number         0  fs.o ABSOLUTE
    gap.c                                    0x00000000   Number         0  gap.o ABSOLUTE
    gpio.c                                   0x00000000   Number         0  gpio.o ABSOLUTE
    handlers.s                               0x00000000   Number         0  handlers.o ABSOLUTE
    init.s                                   0x00000000   Number         0  init.o ABSOLUTE
    jump_table.c                             0x00000000   Number         0  jump_table.o ABSOLUTE
    key.c                                    0x00000000   Number         0  key.o ABSOLUTE
    led_light.c                              0x00000000   Number         0  led_light.o ABSOLUTE
    main.c                                   0x00000000   Number         0  main.o ABSOLUTE
    my_printf.c                              0x00000000   Number         0  my_printf.o ABSOLUTE
    osal_snv.c                               0x00000000   Number         0  osal_snv.o ABSOLUTE
    pwm.c                                    0x00000000   Number         0  pwm.o ABSOLUTE
    pwrmgr.c                                 0x00000000   Number         0  pwrmgr.o ABSOLUTE
    source\\aes.c                            0x00000000   Number         0  aes.o ABSOLUTE
    source\\patch.c                          0x00000000   Number         0  patch.o ABSOLUTE
    source\\phy_sec_ext.c                    0x00000000   Number         0  phy_sec_ext.o ABSOLUTE
    source\aes.c                             0x00000000   Number         0  aes.o ABSOLUTE
    source\patch.c                           0x00000000   Number         0  patch.o ABSOLUTE
    source\phy_sec_ext.c                     0x00000000   Number         0  phy_sec_ext.o ABSOLUTE
    system_ARMCM0.c                          0x00000000   Number         0  system_armcm0.o ABSOLUTE
    timer.c                                  0x00000000   Number         0  timer.o ABSOLUTE
    uart.c                                   0x00000000   Number         0  uart.o ABSOLUTE
    watchdog.c                               0x00000000   Number         0  watchdog.o ABSOLUTE
    [Anonymous Symbol]                       0x11020000   Section        0  findmy.o(.text.FindMy_Init)
    __arm_cp.2_2                             0x11020134   Number         4  findmy.o(.text.FindMy_Init)
    __arm_cp.2_4                             0x11020138   Number         4  findmy.o(.text.FindMy_Init)
    __arm_cp.2_5                             0x1102013c   Number         4  findmy.o(.text.FindMy_Init)
    __arm_cp.2_6                             0x11020140   Number         4  findmy.o(.text.FindMy_Init)
    __arm_cp.2_7                             0x11020144   Number         4  findmy.o(.text.FindMy_Init)
    __arm_cp.2_8                             0x11020148   Number         4  findmy.o(.text.FindMy_Init)
    [Anonymous Symbol]                       0x1102014c   Section        0  findmy.o(.text.FindMy_ProcessEvent)
    __arm_cp.4_0                             0x110202ac   Number         4  findmy.o(.text.FindMy_ProcessEvent)
    __arm_cp.4_1                             0x110202b0   Number         4  findmy.o(.text.FindMy_ProcessEvent)
    __arm_cp.4_2                             0x110202b4   Number         4  findmy.o(.text.FindMy_ProcessEvent)
    __arm_cp.4_3                             0x110202b8   Number         4  findmy.o(.text.FindMy_ProcessEvent)
    __arm_cp.4_4                             0x110202bc   Number         4  findmy.o(.text.FindMy_ProcessEvent)
    __arm_cp.4_5                             0x110202c0   Number         4  findmy.o(.text.FindMy_ProcessEvent)
    __arm_cp.4_6                             0x110202c4   Number         4  findmy.o(.text.FindMy_ProcessEvent)
    __arm_cp.4_7                             0x110202c8   Number         4  findmy.o(.text.FindMy_ProcessEvent)
    __arm_cp.4_8                             0x110202cc   Number         4  findmy.o(.text.FindMy_ProcessEvent)
    __arm_cp.4_9                             0x110202d0   Number         4  findmy.o(.text.FindMy_ProcessEvent)
    [Anonymous Symbol]                       0x110202d4   Section        0  multi.o(.text.GAPMultiRole_CancelDiscovery)
    [Anonymous Symbol]                       0x110202e0   Section        0  multi.o(.text.GAPMultiRole_Init)
    __arm_cp.17_1                            0x11020304   Number         4  multi.o(.text.GAPMultiRole_Init)
    [Anonymous Symbol]                       0x11020308   Section        0  multi.o(.text.GAPMultiRole_ProcessEvent)
    [Anonymous Symbol]                       0x110203c8   Section        0  multi.o(.text.GAPMultiRole_SetParameter)
    __arm_cp.13_0                            0x1102040c   Number         4  multi.o(.text.GAPMultiRole_SetParameter)
    [Anonymous Symbol]                       0x11020410   Section        0  multi.o(.text.GAPMultiRole_StartDevice)
    [Anonymous Symbol]                       0x11020430   Section        0  multi.o(.text.GAPMultiRole_StartDiscovery)
    [Anonymous Symbol]                       0x1102044c   Section        0  multi.o(.text.GAPRole_SetParameter)
    __arm_cp.0_0                             0x110205dc   Number         4  multi.o(.text.GAPRole_SetParameter)
    __arm_cp.0_1                             0x110205e0   Number         4  multi.o(.text.GAPRole_SetParameter)
    __arm_cp.0_2                             0x110205e4   Number         4  multi.o(.text.GAPRole_SetParameter)
    [Anonymous Symbol]                       0x110205e8   Section        0  gap.o(.text.GAP_DeviceInit)
    __arm_cp.0_0                             0x11020618   Number         4  gap.o(.text.GAP_DeviceInit)
    findMy_broadcasterEventCB                0x1102061d   Thumb Code    52  findmy.o(.text.findMy_broadcasterEventCB)
    [Anonymous Symbol]                       0x1102061c   Section        0  findmy.o(.text.findMy_broadcasterEventCB)
    __arm_cp.6_0                             0x11020650   Number         4  findmy.o(.text.findMy_broadcasterEventCB)
    __arm_cp.6_1                             0x11020654   Number         4  findmy.o(.text.findMy_broadcasterEventCB)
    findMy_keyPressEvt                       0x11020659   Thumb Code    60  findmy.o(.text.findMy_keyPressEvt)
    [Anonymous Symbol]                       0x11020658   Section        0  findmy.o(.text.findMy_keyPressEvt)
    __arm_cp.3_0                             0x11020694   Number         4  findmy.o(.text.findMy_keyPressEvt)
    findMy_observerEventCB                   0x11020699   Thumb Code    40  findmy.o(.text.findMy_observerEventCB)
    [Anonymous Symbol]                       0x11020698   Section        0  findmy.o(.text.findMy_observerEventCB)
    __arm_cp.7_1                             0x110206cc   Number         4  findmy.o(.text.findMy_observerEventCB)
    gapRole_ProcessGAPMsg                    0x110206d1   Thumb Code   192  multi.o(.text.gapRole_ProcessGAPMsg)
    [Anonymous Symbol]                       0x110206d0   Section        0  multi.o(.text.gapRole_ProcessGAPMsg)
    __arm_cp.19_0                            0x11020790   Number         4  multi.o(.text.gapRole_ProcessGAPMsg)
    __arm_cp.19_1                            0x11020794   Number         4  multi.o(.text.gapRole_ProcessGAPMsg)
    __tagsym$$used.0                         0x11020798   Number         0  gpio.o(.text.hal_GPIO_IRQHandler)
    [Anonymous Symbol]                       0x11020798   Section        0  gpio.o(.text.hal_GPIO_IRQHandler)
    __arm_cp.14_0                            0x11020840   Number         4  gpio.o(.text.hal_GPIO_IRQHandler)
    [Anonymous Symbol]                       0x11020844   Section        0  gpio.o(.text.hal_gpio_fmux)
    [Anonymous Symbol]                       0x11020860   Section        0  gpio.o(.text.hal_gpio_fmux_set)
    __arm_cp.5_0                             0x11020894   Number         4  gpio.o(.text.hal_gpio_fmux_set)
    [Anonymous Symbol]                       0x11020898   Section        0  gpio.o(.text.hal_gpio_init)
    __arm_cp.18_1                            0x110208e4   Number         4  gpio.o(.text.hal_gpio_init)
    __arm_cp.18_5                            0x110208e8   Number         4  gpio.o(.text.hal_gpio_init)
    __arm_cp.18_6                            0x110208ec   Number         4  gpio.o(.text.hal_gpio_init)
    [Anonymous Symbol]                       0x110208f0   Section        0  gpio.o(.text.hal_gpio_pull_set)
    [Anonymous Symbol]                       0x11020928   Section        0  gpio.o(.text.hal_gpio_read)
    hal_gpio_sleep_handler                   0x11020941   Thumb Code   284  gpio.o(.text.hal_gpio_sleep_handler)
    [Anonymous Symbol]                       0x11020940   Section        0  gpio.o(.text.hal_gpio_sleep_handler)
    __arm_cp.19_0                            0x11020a5c   Number         4  gpio.o(.text.hal_gpio_sleep_handler)
    __arm_cp.19_3                            0x11020a60   Number         4  gpio.o(.text.hal_gpio_sleep_handler)
    __arm_cp.19_4                            0x11020a64   Number         4  gpio.o(.text.hal_gpio_sleep_handler)
    __arm_cp.19_5                            0x11020a68   Number         4  gpio.o(.text.hal_gpio_sleep_handler)
    __arm_cp.19_6                            0x11020a6c   Number         4  gpio.o(.text.hal_gpio_sleep_handler)
    hal_gpio_wakeup_handler                  0x11020a71   Thumb Code   376  gpio.o(.text.hal_gpio_wakeup_handler)
    [Anonymous Symbol]                       0x11020a70   Section        0  gpio.o(.text.hal_gpio_wakeup_handler)
    __arm_cp.20_0                            0x11020be8   Number         4  gpio.o(.text.hal_gpio_wakeup_handler)
    __arm_cp.20_1                            0x11020bec   Number         4  gpio.o(.text.hal_gpio_wakeup_handler)
    __arm_cp.20_2                            0x11020bf0   Number         4  gpio.o(.text.hal_gpio_wakeup_handler)
    __arm_cp.20_3                            0x11020bf4   Number         4  gpio.o(.text.hal_gpio_wakeup_handler)
    __arm_cp.20_4                            0x11020bf8   Number         4  gpio.o(.text.hal_gpio_wakeup_handler)
    __arm_cp.20_5                            0x11020bfc   Number         4  gpio.o(.text.hal_gpio_wakeup_handler)
    __arm_cp.20_6                            0x11020c00   Number         4  gpio.o(.text.hal_gpio_wakeup_handler)
    __arm_cp.20_7                            0x11020c04   Number         4  gpio.o(.text.hal_gpio_wakeup_handler)
    [Anonymous Symbol]                       0x11020c08   Section        0  gpio.o(.text.hal_gpioin_enable)
    __arm_cp.15_0                            0x11020ce4   Number         4  gpio.o(.text.hal_gpioin_enable)
    [Anonymous Symbol]                       0x11020ce8   Section        0  gpio.o(.text.hal_gpioin_register)
    __arm_cp.17_0                            0x11020dec   Number         4  gpio.o(.text.hal_gpioin_register)
    __arm_cp.17_1                            0x11020df0   Number         4  gpio.o(.text.hal_gpioin_register)
    __arm_cp.17_2                            0x11020df4   Number         4  gpio.o(.text.hal_gpioin_register)
    __arm_cp.17_3                            0x11020df8   Number         4  gpio.o(.text.hal_gpioin_register)
    __arm_cp.17_4                            0x11020dfc   Number         4  gpio.o(.text.hal_gpioin_register)
    [Anonymous Symbol]                       0x11020e00   Section        0  pwm.o(.text.hal_pwm_ch_start)
    __arm_cp.9_1                             0x11020f44   Number         4  pwm.o(.text.hal_pwm_ch_start)
    __arm_cp.9_2                             0x11020f48   Number         4  pwm.o(.text.hal_pwm_ch_start)
    [Anonymous Symbol]                       0x11020f4c   Section        0  pwm.o(.text.hal_pwm_ch_stop)
    __arm_cp.10_3                            0x11020fc8   Number         4  pwm.o(.text.hal_pwm_ch_stop)
    [Anonymous Symbol]                       0x11020fcc   Section        0  pwm.o(.text.hal_pwm_module_init)
    __arm_cp.7_0                             0x110211c0   Number         4  pwm.o(.text.hal_pwm_module_init)
    __arm_cp.7_1                             0x110211c4   Number         4  pwm.o(.text.hal_pwm_module_init)
    __arm_cp.7_2                             0x110211c8   Number         4  pwm.o(.text.hal_pwm_module_init)
    __arm_cp.7_3                             0x110211cc   Number         4  pwm.o(.text.hal_pwm_module_init)
    __arm_cp.7_4                             0x110211d0   Number         4  pwm.o(.text.hal_pwm_module_init)
    __arm_cp.7_5                             0x110211d4   Number         4  pwm.o(.text.hal_pwm_module_init)
    __arm_cp.7_6                             0x110211d8   Number         4  pwm.o(.text.hal_pwm_module_init)
    __arm_cp.7_7                             0x110211dc   Number         4  pwm.o(.text.hal_pwm_module_init)
    __arm_cp.7_8                             0x110211e0   Number         4  pwm.o(.text.hal_pwm_module_init)
    __arm_cp.7_9                             0x110211e4   Number         4  pwm.o(.text.hal_pwm_module_init)
    __arm_cp.7_10                            0x110211e8   Number         4  pwm.o(.text.hal_pwm_module_init)
    _section_xip_code_                       0x11021474   Section        0  patch.o(_section_xip_code_)
    TRNG_Output                              0x110216c1   Thumb Code    72  patch.o(_section_xip_code_)
    i.ATT_GetCurrentMTUSize                  0x1102186c   Section        0  att_util.o(i.ATT_GetCurrentMTUSize)
    i.ATT_UpdateMtuSize                      0x11021878   Section        0  att_util.o(i.ATT_UpdateMtuSize)
    i.GAP_CentDevMgrInit                     0x11021890   Section        0  gap_centdevmgr.o(i.GAP_CentDevMgrInit)
    i.GAP_DeviceDiscoveryCancel              0x110218cc   Section        0  gap_centdevmgr.o(i.GAP_DeviceDiscoveryCancel)
    i.GAP_DeviceDiscoveryRequest             0x11021904   Section        0  gap_centdevmgr.o(i.GAP_DeviceDiscoveryRequest)
    i.GAP_EndDiscoverable                    0x110219a0   Section        0  gap_peridevmgr.o(i.GAP_EndDiscoverable)
    i.GAP_GetParamValue                      0x110219f4   Section        0  gap_configmgr.o(i.GAP_GetParamValue)
    i.GAP_Init                               0x11021a0c   Section        0  gap_task.o(i.GAP_Init)
    i.GAP_MakeDiscoverable                   0x11021a2c   Section        0  gap_peridevmgr.o(i.GAP_MakeDiscoverable)
    i.GAP_NumActiveConnections               0x11021aec   Section        0  gap_task.o(i.GAP_NumActiveConnections)
    i.GAP_ParamsInit                         0x11021af4   Section        0  gap_configmgr.o(i.GAP_ParamsInit)
    i.GAP_PeriDevMgrInit                     0x11021b2c   Section        0  gap_peridevmgr.o(i.GAP_PeriDevMgrInit)
    i.GAP_ProcessEvent                       0x11021b74   Section        0  gap_task.o(i.GAP_ProcessEvent)
    i.GAP_RegisterForHCIMsgs                 0x11021c54   Section        0  gap_task.o(i.GAP_RegisterForHCIMsgs)
    i.GAP_SetParamValue                      0x11021c60   Section        0  gap_configmgr.o(i.GAP_SetParamValue)
    i.GAP_UpdateAdvertisingData              0x11021c80   Section        0  gap_peridevmgr.o(i.GAP_UpdateAdvertisingData)
    i.L2CAP_BuildCmdReject                   0x11021cf4   Section        0  l2cap_util.o(i.L2CAP_BuildCmdReject)
    i.L2CAP_BuildParamUpdateRsp              0x11021d36   Section        0  l2cap_util.o(i.L2CAP_BuildParamUpdateRsp)
    i.L2CAP_CmdReject                        0x11021d44   Section        0  l2cap_if.o(i.L2CAP_CmdReject)
    i.L2CAP_ConnParamUpdateRsp               0x11021d5c   Section        0  l2cap_if.o(i.L2CAP_ConnParamUpdateRsp)
    i.L2CAP_Fragment_bm_alloc                0x11021d74   Section        0  l2cap_util.o(i.L2CAP_Fragment_bm_alloc)
    i.L2CAP_ReassemblePkt_Reset              0x11021d7c   Section        0  l2cap_util.o(i.L2CAP_ReassemblePkt_Reset)
    i.L2CAP_RegisterApp                      0x11021da0   Section        0  l2cap_if.o(i.L2CAP_RegisterApp)
    i.L2CAP_SegmentPkt_Reset                 0x11021dcc   Section        0  l2cap_util.o(i.L2CAP_SegmentPkt_Reset)
    i.L2CAP_bm_alloc                         0x11021e10   Section        0  l2cap_util.o(i.L2CAP_bm_alloc)
    i.SM_CalcRandomAddr                      0x11021e28   Section        0  sm_mgr.o(i.SM_CalcRandomAddr)
    disconnectNext                           0x11021e6d   Thumb Code    26  gap_linkmgr.o(i.disconnectNext)
    i.disconnectNext                         0x11021e6c   Section        0  gap_linkmgr.o(i.disconnectNext)
    i.gapAddAddrAdj                          0x11021e86   Section        0  gap_configmgr.o(i.gapAddAddrAdj)
    gapAllocAdvRecs                          0x11021eb9   Thumb Code    74  gap_peridevmgr.o(i.gapAllocAdvRecs)
    i.gapAllocAdvRecs                        0x11021eb8   Section        0  gap_peridevmgr.o(i.gapAllocAdvRecs)
    gapAllocScanRecs                         0x11021f0d   Thumb Code    68  gap_centdevmgr.o(i.gapAllocScanRecs)
    i.gapAllocScanRecs                       0x11021f0c   Section        0  gap_centdevmgr.o(i.gapAllocScanRecs)
    i.gapCancelLinkReq                       0x11021f54   Section        0  gap_centlinkmgr.o(i.gapCancelLinkReq)
    gapCentProcessHCICmdEvt                  0x11021f91   Thumb Code    38  gap_centdevmgr.o(i.gapCentProcessHCICmdEvt)
    i.gapCentProcessHCICmdEvt                0x11021f90   Section        0  gap_centdevmgr.o(i.gapCentProcessHCICmdEvt)
    i.gapDetermineAddrType                   0x11021fbc   Section        0  gap_configmgr.o(i.gapDetermineAddrType)
    i.gapFindADType                          0x11021fda   Section        0  gap_devmgr.o(i.gapFindADType)
    gapFindScanRec                           0x11022025   Thumb Code    72  gap_centdevmgr.o(i.gapFindScanRec)
    i.gapFindScanRec                         0x11022024   Section        0  gap_centdevmgr.o(i.gapFindScanRec)
    gapFreeAdvertState                       0x11022071   Thumb Code    20  gap_peridevmgr.o(i.gapFreeAdvertState)
    i.gapFreeAdvertState                     0x11022070   Section        0  gap_peridevmgr.o(i.gapFreeAdvertState)
    gapFreeAuthLink                          0x11022089   Thumb Code    58  gap_linkmgr.o(i.gapFreeAuthLink)
    i.gapFreeAuthLink                        0x11022088   Section        0  gap_linkmgr.o(i.gapFreeAuthLink)
    i.gapFreeEstLink                         0x110220c8   Section        0  gap_linkmgr.o(i.gapFreeEstLink)
    gapFreeScanRecs                          0x110220e1   Thumb Code   126  gap_centdevmgr.o(i.gapFreeScanRecs)
    i.gapFreeScanRecs                        0x110220e0   Section        0  gap_centdevmgr.o(i.gapFreeScanRecs)
    i.gapGetIRK                              0x11022164   Section        0  gap_configmgr.o(i.gapGetIRK)
    i.gapIsAdvertising                       0x11022170   Section        0  gap_devmgr.o(i.gapIsAdvertising)
    gapPeriProcessHCICmdCompleteEvt          0x11022181   Thumb Code   130  gap_peridevmgr.o(i.gapPeriProcessHCICmdCompleteEvt)
    i.gapPeriProcessHCICmdCompleteEvt        0x11022180   Section        0  gap_peridevmgr.o(i.gapPeriProcessHCICmdCompleteEvt)
    gapProcessAdvertDevInfo                  0x11022211   Thumb Code   302  gap_centdevmgr.o(i.gapProcessAdvertDevInfo)
    i.gapProcessAdvertDevInfo                0x11022210   Section        0  gap_centdevmgr.o(i.gapProcessAdvertDevInfo)
    gapProcessAdvertisingEvt                 0x1102234d   Thumb Code   108  gap_peridevmgr.o(i.gapProcessAdvertisingEvt)
    i.gapProcessAdvertisingEvt               0x1102234c   Section        0  gap_peridevmgr.o(i.gapProcessAdvertisingEvt)
    gapProcessConnEvt                        0x110223cd   Thumb Code    60  gap_centdevmgr.o(i.gapProcessConnEvt)
    i.gapProcessConnEvt                      0x110223cc   Section        0  gap_centdevmgr.o(i.gapProcessConnEvt)
    i.gapProcessConnUpdateCmdStatus          0x11022410   Section        0  gap_centlinkmgr.o(i.gapProcessConnUpdateCmdStatus)
    i.gapProcessConnUpdateCompleteEvt        0x11022424   Section        0  gap_linkmgr.o(i.gapProcessConnUpdateCompleteEvt)
    i.gapProcessConnectionCompleteEvt        0x11022438   Section        0  gap_linkmgr.o(i.gapProcessConnectionCompleteEvt)
    i.gapProcessCreateLLConnCmdStatus        0x11022518   Section        0  gap_centlinkmgr.o(i.gapProcessCreateLLConnCmdStatus)
    i.gapProcessDisconnectCompleteEvt        0x1102254c   Section        0  gap_linkmgr.o(i.gapProcessDisconnectCompleteEvt)
    gapProcessHCICmdCompleteEvt              0x110225bd   Thumb Code   172  gap_task.o(i.gapProcessHCICmdCompleteEvt)
    i.gapProcessHCICmdCompleteEvt            0x110225bc   Section        0  gap_task.o(i.gapProcessHCICmdCompleteEvt)
    i.gapProcessL2CAPSignalEvt               0x1102267c   Section        0  gap_centlinkmgr.o(i.gapProcessL2CAPSignalEvt)
    i.gapProcessNewAddr                      0x110226dc   Section        0  gap_configmgr.o(i.gapProcessNewAddr)
    gapProcessOSALMsg                        0x11022709   Thumb Code   190  gap_task.o(i.gapProcessOSALMsg)
    i.gapProcessOSALMsg                      0x11022708   Section        0  gap_task.o(i.gapProcessOSALMsg)
    i.gapProcessRandomAddrComplete           0x110227dc   Section        0  gap_configmgr.o(i.gapProcessRandomAddrComplete)
    gapProcessScanningEvt                    0x11022849   Thumb Code    90  gap_centdevmgr.o(i.gapProcessScanningEvt)
    i.gapProcessScanningEvt                  0x11022848   Section        0  gap_centdevmgr.o(i.gapProcessScanningEvt)
    i.gapReadBD_ADDRStatus                   0x110228a8   Section        0  gap_configmgr.o(i.gapReadBD_ADDRStatus)
    i.gapReadBufSizeCmdStatus                0x110228ec   Section        0  gap_configmgr.o(i.gapReadBufSizeCmdStatus)
    i.gapRegisterCentral                     0x11022928   Section        0  gap_task.o(i.gapRegisterCentral)
    i.gapRegisterPeripheral                  0x11022934   Section        0  gap_task.o(i.gapRegisterPeripheral)
    gapSendDevDiscEvent                      0x11022941   Thumb Code   200  gap_centdevmgr.o(i.gapSendDevDiscEvent)
    i.gapSendDevDiscEvent                    0x11022940   Section        0  gap_centdevmgr.o(i.gapSendDevDiscEvent)
    gapSendDeviceInfoEvent                   0x11022a11   Thumb Code    98  gap_centdevmgr.o(i.gapSendDeviceInfoEvent)
    i.gapSendDeviceInfoEvent                 0x11022a10   Section        0  gap_centdevmgr.o(i.gapSendDeviceInfoEvent)
    gapSendDeviceInitDoneEvent               0x11022a79   Thumb Code    64  gap_configmgr.o(i.gapSendDeviceInitDoneEvent)
    i.gapSendDeviceInitDoneEvent             0x11022a78   Section        0  gap_configmgr.o(i.gapSendDeviceInitDoneEvent)
    i.gapSendLinkUpdateEvent                 0x11022ac0   Section        0  gap_linkmgr.o(i.gapSendLinkUpdateEvent)
    gapSendMakeDiscEvent                     0x11022b09   Thumb Code    54  gap_peridevmgr.o(i.gapSendMakeDiscEvent)
    i.gapSendMakeDiscEvent                   0x11022b08   Section        0  gap_peridevmgr.o(i.gapSendMakeDiscEvent)
    gapSendScanEnable                        0x11022b45   Thumb Code    28  gap_centdevmgr.o(i.gapSendScanEnable)
    i.gapSendScanEnable                      0x11022b44   Section        0  gap_centdevmgr.o(i.gapSendScanEnable)
    i.gapSetAdvParams                        0x11022b60   Section        0  gap_peridevmgr.o(i.gapSetAdvParams)
    i.gapSetAdvParamsStatus                  0x11022be8   Section        0  gap_peridevmgr.o(i.gapSetAdvParamsStatus)
    i.gapSetScanParamStatus                  0x11022c14   Section        0  gap_centdevmgr.o(i.gapSetScanParamStatus)
    i.gapTerminateConnComplete               0x11022c64   Section        0  gap_centlinkmgr.o(i.gapTerminateConnComplete)
    i.gapValidADType                         0x11022c6c   Section        0  gap_devmgr.o(i.gapValidADType)
    i.gapWriteAdvDataStatus                  0x11022c80   Section        0  gap_peridevmgr.o(i.gapWriteAdvDataStatus)
    i.gapWriteAdvEnableStatus                0x11022cb0   Section        0  gap_peridevmgr.o(i.gapWriteAdvEnableStatus)
    isLimitedDiscoverableMode                0x11022d69   Thumb Code    40  gap_peridevmgr.o(i.isLimitedDiscoverableMode)
    i.isLimitedDiscoverableMode              0x11022d68   Section        0  gap_peridevmgr.o(i.isLimitedDiscoverableMode)
    i.l2capEncapSendData                     0x11022d94   Section        0  l2cap_util.o(i.l2capEncapSendData)
    i.l2capPktToSegmentBuff                  0x11022e44   Section        0  l2cap_util.o(i.l2capPktToSegmentBuff)
    i.l2capSendCmd                           0x11022f48   Section        0  l2cap_util.o(i.l2capSendCmd)
    i.linkDB_Add                             0x11022fa8   Section        0  linkdb.o(i.linkDB_Add)
    i.linkDB_Find                            0x11023000   Section        0  linkdb.o(i.linkDB_Find)
    i.linkDB_FindFirst                       0x11023028   Section        0  linkdb.o(i.linkDB_FindFirst)
    i.linkDB_Init                            0x11023060   Section        0  linkdb.o(i.linkDB_Init)
    i.linkDB_NumActive                       0x1102309c   Section        0  linkdb.o(i.linkDB_NumActive)
    i.linkDB_Remove                          0x110230c0   Section        0  linkdb.o(i.linkDB_Remove)
    reportStatusChange                       0x110230f9   Thumb Code    34  linkdb.o(i.reportStatusChange)
    i.reportStatusChange                     0x110230f8   Section        0  linkdb.o(i.reportStatusChange)
    i.sendEstLinkEvent                       0x11023120   Section        0  gap_linkmgr.o(i.sendEstLinkEvent)
    sendTerminateEvent                       0x1102317b   Thumb Code    42  gap_linkmgr.o(i.sendTerminateEvent)
    i.sendTerminateEvent                     0x1102317a   Section        0  gap_linkmgr.o(i.sendTerminateEvent)
    smEncrypt                                0x110231a5   Thumb Code    16  sm_mgr.o(i.smEncrypt)
    i.smEncrypt                              0x110231a4   Section        0  sm_mgr.o(i.smEncrypt)
    i.smGenerateRandBuf                      0x110231b4   Section        0  sm_mgr.o(i.smGenerateRandBuf)
    i.sm_ah                                  0x110231da   Section        0  sm_mgr.o(i.sm_ah)
    findMy_ObserverCBs                       0x1102327c   Data           8  findmy.o(.rodata.findMy_ObserverCBs)
    [Anonymous Symbol]                       0x1102327c   Section        0  findmy.o(.rodata.findMy_ObserverCBs)
    RESET                                    0x1fff1838   Section        8  startup_armcm0.o(RESET)
    .ARM.Collect$$$$00000000                 0x1fff1840   Section        0  entry.o(.ARM.Collect$$$$00000000)
    .ARM.Collect$$$$00000001                 0x1fff1840   Section        4  entry2.o(.ARM.Collect$$$$00000001)
    .ARM.Collect$$$$00000004                 0x1fff1844   Section        4  entry5.o(.ARM.Collect$$$$00000004)
    .ARM.Collect$$$$00000008                 0x1fff1848   Section        0  entry7b.o(.ARM.Collect$$$$00000008)
    .ARM.Collect$$$$0000000A                 0x1fff1848   Section        0  entry8b.o(.ARM.Collect$$$$0000000A)
    .ARM.Collect$$$$0000000B                 0x1fff1848   Section        8  entry9a.o(.ARM.Collect$$$$0000000B)
    __lit__00000000                          0x1fff1850   Data           4  entry2.o(.ARM.Collect$$$$00002712)
    .ARM.Collect$$$$0000000D                 0x1fff1850   Section        0  entry10a.o(.ARM.Collect$$$$0000000D)
    .ARM.Collect$$$$0000000F                 0x1fff1850   Section        0  entry11a.o(.ARM.Collect$$$$0000000F)
    .ARM.Collect$$$$00002712                 0x1fff1850   Section        4  entry2.o(.ARM.Collect$$$$00002712)
    .text                                    0x1fff1854   Section       20  startup_armcm0.o(.text)
    .text                                    0x1fff1868   Section        0  strstr.o(.text)
    .text                                    0x1fff1890   Section       36  init.o(.text)
    .text                                    0x1fff18b4   Section        0  __dczerorl.o(.text)
    [Anonymous Symbol]                       0x1fff18f0   Section        0  system_armcm0.o(.text.SystemInit)
    __arm_cp.1_0                             0x1fff18f8   Number         4  system_armcm0.o(.text.SystemInit)
    __arm_cp.1_1                             0x1fff18fc   Number         4  system_armcm0.o(.text.SystemInit)
    _spif_wait_nobusy_x                      0x1fff1901   Thumb Code   180  flash.o(.text._spif_wait_nobusy_x)
    [Anonymous Symbol]                       0x1fff1900   Section        0  flash.o(.text._spif_wait_nobusy_x)
    __arm_cp.1_0                             0x1fff19b4   Number         4  flash.o(.text._spif_wait_nobusy_x)
    __arm_cp.1_1                             0x1fff19b8   Number         4  flash.o(.text._spif_wait_nobusy_x)
    __arm_cp.1_2                             0x1fff19bc   Number         4  flash.o(.text._spif_wait_nobusy_x)
    [Anonymous Symbol]                       0x1fff19c0   Section        0  findmy_main.o(.text.app_main)
    fs_init                                  0x1fff19d5   Thumb Code   548  fs.o(.text.fs_init)
    [Anonymous Symbol]                       0x1fff19d4   Section        0  fs.o(.text.fs_init)
    fs_search_items                          0x1fff1bf9   Thumb Code   440  fs.o(.text.fs_search_items)
    [Anonymous Symbol]                       0x1fff1bf8   Section        0  fs.o(.text.fs_search_items)
    __arm_cp.2_0                             0x1fff1db0   Number         4  fs.o(.text.fs_search_items)
    __arm_cp.2_1                             0x1fff1db4   Number         4  fs.o(.text.fs_search_items)
    __arm_cp.2_2                             0x1fff1db8   Number         4  fs.o(.text.fs_search_items)
    __arm_cp.2_3                             0x1fff1dbc   Number         4  fs.o(.text.fs_search_items)
    __arm_cp.2_4                             0x1fff1dc0   Number         4  fs.o(.text.fs_search_items)
    [Anonymous Symbol]                       0x1fff1dc4   Section        0  key.o(.text.gpio_key_timer_handler)
    __arm_cp.2_0                             0x1fff1e90   Number         4  key.o(.text.gpio_key_timer_handler)
    __arm_cp.2_1                             0x1fff1e94   Number         4  key.o(.text.gpio_key_timer_handler)
    __arm_cp.2_2                             0x1fff1e98   Number         4  key.o(.text.gpio_key_timer_handler)
    __arm_cp.2_3                             0x1fff1e9c   Number         4  key.o(.text.gpio_key_timer_handler)
    __tagsym$$used.0                         0x1fff1ea0   Number         0  timer.o(.text.hal_TIMER5_IRQHandler)
    [Anonymous Symbol]                       0x1fff1ea0   Section        0  timer.o(.text.hal_TIMER5_IRQHandler)
    __arm_cp.0_0                             0x1fff1ebc   Number         4  timer.o(.text.hal_TIMER5_IRQHandler)
    __tagsym$$used.1                         0x1fff1ec0   Number         0  timer.o(.text.hal_TIMER6_IRQHandler)
    [Anonymous Symbol]                       0x1fff1ec0   Section        0  timer.o(.text.hal_TIMER6_IRQHandler)
    __arm_cp.1_0                             0x1fff1edc   Number         4  timer.o(.text.hal_TIMER6_IRQHandler)
    __arm_cp.1_1                             0x1fff1ee0   Number         4  timer.o(.text.hal_TIMER6_IRQHandler)
    [Anonymous Symbol]                       0x1fff1ee4   Section        0  clock.o(.text.hal_clk_gate_disable)
    [Anonymous Symbol]                       0x1fff1f20   Section        0  clock.o(.text.hal_clk_gate_enable)
    __arm_cp.0_0                             0x1fff1f5c   Number         4  clock.o(.text.hal_clk_gate_enable)
    [Anonymous Symbol]                       0x1fff1f60   Section        0  flash.o(.text.hal_flash_read)
    __arm_cp.4_3                             0x1fff209c   Number         4  flash.o(.text.hal_flash_read)
    __arm_cp.4_4                             0x1fff20a0   Number         4  flash.o(.text.hal_flash_read)
    [Anonymous Symbol]                       0x1fff20a4   Section        0  flash.o(.text.hal_flash_write)
    __arm_cp.5_0                             0x1fff21ec   Number         4  flash.o(.text.hal_flash_write)
    __arm_cp.5_1                             0x1fff21f0   Number         4  flash.o(.text.hal_flash_write)
    __arm_cp.5_2                             0x1fff21f4   Number         4  flash.o(.text.hal_flash_write)
    __arm_cp.5_3                             0x1fff21f8   Number         4  flash.o(.text.hal_flash_write)
    __arm_cp.5_4                             0x1fff21fc   Number         4  flash.o(.text.hal_flash_write)
    __arm_cp.5_6                             0x1fff2200   Number         4  flash.o(.text.hal_flash_write)
    [Anonymous Symbol]                       0x1fff2204   Section        0  fs.o(.text.hal_fs_init)
    __arm_cp.10_0                            0x1fff2228   Number         4  fs.o(.text.hal_fs_init)
    [Anonymous Symbol]                       0x1fff222c   Section        0  flash.o(.text.hal_get_flash_info)
    __arm_cp.0_0                             0x1fff2394   Number         4  flash.o(.text.hal_get_flash_info)
    __arm_cp.0_1                             0x1fff2398   Number         4  flash.o(.text.hal_get_flash_info)
    __arm_cp.0_2                             0x1fff239c   Number         4  flash.o(.text.hal_get_flash_info)
    __arm_cp.0_3                             0x1fff23a0   Number         4  flash.o(.text.hal_get_flash_info)
    __arm_cp.0_4                             0x1fff23a4   Number         4  flash.o(.text.hal_get_flash_info)
    __arm_cp.0_5                             0x1fff23a8   Number         4  flash.o(.text.hal_get_flash_info)
    __arm_cp.0_6                             0x1fff23ac   Number         4  flash.o(.text.hal_get_flash_info)
    [Anonymous Symbol]                       0x1fff23b0   Section        0  pwrmgr.o(.text.hal_pwrmgr_RAM_retention)
    [Anonymous Symbol]                       0x1fff23d4   Section        0  pwrmgr.o(.text.hal_pwrmgr_RAM_retention_set)
    [Anonymous Symbol]                       0x1fff23ec   Section        0  pwrmgr.o(.text.hal_pwrmgr_init)
    __arm_cp.1_1                             0x1fff240c   Number         4  pwrmgr.o(.text.hal_pwrmgr_init)
    __arm_cp.1_2                             0x1fff2410   Number         4  pwrmgr.o(.text.hal_pwrmgr_init)
    __arm_cp.1_3                             0x1fff2414   Number         4  pwrmgr.o(.text.hal_pwrmgr_init)
    [Anonymous Symbol]                       0x1fff2418   Section        0  pwrmgr.o(.text.hal_pwrmgr_lock)
    [Anonymous Symbol]                       0x1fff24d4   Section        0  pwrmgr.o(.text.hal_pwrmgr_register)
    __tagsym$$used.1                         0x1fff25a4   Number         0  pwrmgr.o(.text.hal_pwrmgr_sleep_process)
    [Anonymous Symbol]                       0x1fff25a4   Section        0  pwrmgr.o(.text.hal_pwrmgr_sleep_process)
    __arm_cp.9_0                             0x1fff265c   Number         4  pwrmgr.o(.text.hal_pwrmgr_sleep_process)
    __arm_cp.9_1                             0x1fff2660   Number         4  pwrmgr.o(.text.hal_pwrmgr_sleep_process)
    [Anonymous Symbol]                       0x1fff2664   Section        0  pwrmgr.o(.text.hal_pwrmgr_unlock)
    __arm_cp.5_0                             0x1fff2790   Number         4  pwrmgr.o(.text.hal_pwrmgr_unlock)
    __tagsym$$used.0                         0x1fff2794   Number         0  pwrmgr.o(.text.hal_pwrmgr_wakeup_process)
    [Anonymous Symbol]                       0x1fff2794   Section        0  pwrmgr.o(.text.hal_pwrmgr_wakeup_process)
    __arm_cp.8_0                             0x1fff2888   Number         4  pwrmgr.o(.text.hal_pwrmgr_wakeup_process)
    __arm_cp.8_1                             0x1fff288c   Number         4  pwrmgr.o(.text.hal_pwrmgr_wakeup_process)
    __arm_cp.8_2                             0x1fff2890   Number         4  pwrmgr.o(.text.hal_pwrmgr_wakeup_process)
    __arm_cp.8_3                             0x1fff2894   Number         4  pwrmgr.o(.text.hal_pwrmgr_wakeup_process)
    __arm_cp.8_4                             0x1fff2898   Number         4  pwrmgr.o(.text.hal_pwrmgr_wakeup_process)
    [Anonymous Symbol]                       0x1fff289c   Section        0  clock.o(.text.hal_rc32k_clk_tracking_init)
    __arm_cp.11_0                            0x1fff28b0   Number         4  clock.o(.text.hal_rc32k_clk_tracking_init)
    __arm_cp.11_1                            0x1fff28b4   Number         4  clock.o(.text.hal_rc32k_clk_tracking_init)
    __arm_cp.11_2                            0x1fff28b8   Number         4  clock.o(.text.hal_rc32k_clk_tracking_init)
    __arm_cp.11_3                            0x1fff28bc   Number         4  clock.o(.text.hal_rc32k_clk_tracking_init)
    [Anonymous Symbol]                       0x1fff28c0   Section        0  clock.o(.text.hal_rtc_clock_config)
    __arm_cp.5_0                             0x1fff2930   Number         4  clock.o(.text.hal_rtc_clock_config)
    __arm_cp.5_1                             0x1fff2934   Number         4  clock.o(.text.hal_rtc_clock_config)
    __arm_cp.5_2                             0x1fff2938   Number         4  clock.o(.text.hal_rtc_clock_config)
    [Anonymous Symbol]                       0x1fff293c   Section        0  flash.o(.text.hal_spif_cache_init)
    __arm_cp.2_1                             0x1fff2958   Number         4  flash.o(.text.hal_spif_cache_init)
    [Anonymous Symbol]                       0x1fff295c   Section        0  jump_table.o(.text.hard_fault)
    __arm_cp.1_0                             0x1fff298c   Number         4  jump_table.o(.text.hard_fault)
    __arm_cp.1_1                             0x1fff2990   Number         4  jump_table.o(.text.hard_fault)
    __arm_cp.1_2                             0x1fff2994   Number         4  jump_table.o(.text.hard_fault)
    __arm_cp.1_3                             0x1fff2998   Number         4  jump_table.o(.text.hard_fault)
    __arm_cp.1_4                             0x1fff299c   Number         4  jump_table.o(.text.hard_fault)
    __arm_cp.1_5                             0x1fff29a0   Number         4  jump_table.o(.text.hard_fault)
    __arm_cp.1_6                             0x1fff29a4   Number         4  jump_table.o(.text.hard_fault)
    hw_spif_cache_config                     0x1fff29a9   Thumb Code   260  flash.o(.text.hw_spif_cache_config)
    [Anonymous Symbol]                       0x1fff29a8   Section        0  flash.o(.text.hw_spif_cache_config)
    __arm_cp.3_0                             0x1fff2aac   Number         4  flash.o(.text.hw_spif_cache_config)
    __arm_cp.3_1                             0x1fff2ab0   Number         4  flash.o(.text.hw_spif_cache_config)
    __arm_cp.3_2                             0x1fff2ab4   Number         4  flash.o(.text.hw_spif_cache_config)
    __arm_cp.3_3                             0x1fff2ab8   Number         4  flash.o(.text.hw_spif_cache_config)
    __arm_cp.3_4                             0x1fff2abc   Number         4  flash.o(.text.hw_spif_cache_config)
    __arm_cp.3_5                             0x1fff2ac0   Number         4  flash.o(.text.hw_spif_cache_config)
    __arm_cp.3_6                             0x1fff2ac4   Number         4  flash.o(.text.hw_spif_cache_config)
    [Anonymous Symbol]                       0x1fff2ac8   Section        0  key.o(.text.key_init)
    __arm_cp.0_1                             0x1fff2af8   Number         4  key.o(.text.key_init)
    [Anonymous Symbol]                       0x1fff2afc   Section        0  main.o(.text.main)
    __arm_cp.0_0                             0x1fff2c68   Number         4  main.o(.text.main)
    __arm_cp.0_2                             0x1fff2c6c   Number         4  main.o(.text.main)
    __arm_cp.0_3                             0x1fff2c70   Number         4  main.o(.text.main)
    __arm_cp.0_4                             0x1fff2c74   Number         4  main.o(.text.main)
    __arm_cp.0_5                             0x1fff2c78   Number         4  main.o(.text.main)
    __arm_cp.0_6                             0x1fff2c7c   Number         4  main.o(.text.main)
    __arm_cp.0_7                             0x1fff2c80   Number         4  main.o(.text.main)
    __arm_cp.0_8                             0x1fff2c84   Number         4  main.o(.text.main)
    __arm_cp.0_9                             0x1fff2c88   Number         4  main.o(.text.main)
    __arm_cp.0_10                            0x1fff2c8c   Number         4  main.o(.text.main)
    __arm_cp.0_11                            0x1fff2c90   Number         4  main.o(.text.main)
    __arm_cp.0_12                            0x1fff2c94   Number         4  main.o(.text.main)
    [Anonymous Symbol]                       0x1fff2c98   Section        0  osal_findmy.o(.text.osalInitTasks)
    __arm_cp.0_0                             0x1fff2cd8   Number         4  osal_findmy.o(.text.osalInitTasks)
    pin_event_handler                        0x1fff2cdd   Thumb Code   148  key.o(.text.pin_event_handler)
    [Anonymous Symbol]                       0x1fff2cdc   Section        0  key.o(.text.pin_event_handler)
    __arm_cp.1_0                             0x1fff2d70   Number         4  key.o(.text.pin_event_handler)
    [Anonymous Symbol]                       0x1fff2d74   Section        0  watchdog.o(.text.watchdog_config)
    __arm_cp.3_0                             0x1fff2dfc   Number         4  watchdog.o(.text.watchdog_config)
    __arm_cp.3_1                             0x1fff2e00   Number         4  watchdog.o(.text.watchdog_config)
    __arm_cp.3_2                             0x1fff2e04   Number         4  watchdog.o(.text.watchdog_config)
    __arm_cp.3_3                             0x1fff2e08   Number         4  watchdog.o(.text.watchdog_config)
    __arm_cp.3_4                             0x1fff2e0c   Number         4  watchdog.o(.text.watchdog_config)
    __arm_cp.3_5                             0x1fff2e10   Number         4  watchdog.o(.text.watchdog_config)
    __arm_cp.3_6                             0x1fff2e14   Number         4  watchdog.o(.text.watchdog_config)
    __arm_cp.3_7                             0x1fff2e18   Number         4  watchdog.o(.text.watchdog_config)
    __tagsym$$used.0                         0x1fff32fc   Number         0  uart.o(_section_sram_code_)
    [Anonymous Symbol]                       0x1fff32fc   Section        0  uart.o(_section_sram_code_)
    __arm_cp.0_0                             0x1fff356c   Number         4  uart.o(_section_sram_code_)
    __arm_cp.0_1                             0x1fff3570   Number         4  uart.o(_section_sram_code_)
    __arm_cp.0_3                             0x1fff3574   Number         4  uart.o(_section_sram_code_)
    __tagsym$$used.1                         0x1fff3578   Number         0  uart.o(_section_sram_code_)
    [Anonymous Symbol]                       0x1fff3578   Section        0  uart.o(_section_sram_code_)
    __arm_cp.1_0                             0x1fff37f4   Number         4  uart.o(_section_sram_code_)
    __arm_cp.1_1                             0x1fff37f8   Number         4  uart.o(_section_sram_code_)
    __arm_cp.1_2                             0x1fff37fc   Number         4  uart.o(_section_sram_code_)
    __arm_cp.1_3                             0x1fff3800   Number         4  uart.o(_section_sram_code_)
    [Anonymous Symbol]                       0x1fff3804   Section        0  watchdog.o(_section_sram_code_)
    __arm_cp.1_0                             0x1fff387c   Number         4  watchdog.o(_section_sram_code_)
    __arm_cp.1_1                             0x1fff3880   Number         4  watchdog.o(_section_sram_code_)
    __arm_cp.1_2                             0x1fff3884   Number         4  watchdog.o(_section_sram_code_)
    __arm_cp.1_3                             0x1fff3888   Number         4  watchdog.o(_section_sram_code_)
    __arm_cp.1_4                             0x1fff388c   Number         4  watchdog.o(_section_sram_code_)
    __arm_cp.1_5                             0x1fff3890   Number         4  watchdog.o(_section_sram_code_)
    [Anonymous Symbol]                       0x1fff3894   Section        0  pwrmgr.o(_section_sram_code_)
    __arm_cp.0_0                             0x1fff38a4   Number         4  pwrmgr.o(_section_sram_code_)
    __arm_cp.16_0                            0x1fff38dc   Number         4  pwrmgr.o(_section_sram_code_)
    __arm_cp.16_1                            0x1fff38e0   Number         4  pwrmgr.o(_section_sram_code_)
    _section_sram_code_                      0x1fff38e4   Section        0  l2cap_util.o(_section_sram_code_)
    i.HCI_LE_ConnUpdateCmd                   0x1fff398c   Section        0  patch.o(i.HCI_LE_ConnUpdateCmd)
    i.LL_ConnUpdate1                         0x1fff39a8   Section        0  patch.o(i.LL_ConnUpdate1)
    i.LL_ENC_AES128_Encrypt1                 0x1fff3a98   Section        0  patch.o(i.LL_ENC_AES128_Encrypt1)
    i.LL_ENC_Decrypt1                        0x1fff3ab4   Section        0  patch.o(i.LL_ENC_Decrypt1)
    i.LL_ENC_Encrypt1                        0x1fff3c2c   Section        0  patch.o(i.LL_ENC_Encrypt1)
    i.LL_IRQHandler1                         0x1fff3d8c   Section        0  patch.o(i.LL_IRQHandler1)
    i.LL_SetAdvControl1                      0x1fff3f0c   Section        0  patch.o(i.LL_SetAdvControl1)
    i.LL_SetAdvParam1                        0x1fff40f8   Section        0  patch.o(i.LL_SetAdvParam1)
    i.LL_SetDataLengh1                       0x1fff4148   Section        0  patch.o(i.LL_SetDataLengh1)
    i.LL_set_default_conn_params1            0x1fff4178   Section        0  patch.o(i.LL_set_default_conn_params1)
    NVIC_EnableIRQ                           0x1fff418d   Thumb Code    14  patch.o(i.NVIC_EnableIRQ)
    i.NVIC_EnableIRQ                         0x1fff418c   Section        0  patch.o(i.NVIC_EnableIRQ)
    i.__psr                                  0x1fff41a0   Section        0  patch.o(i.__psr)
    i.__scatterload_copy                     0x1fff41a6   Section       14  handlers.o(i.__scatterload_copy)
    i.__scatterload_null                     0x1fff41b4   Section        2  handlers.o(i.__scatterload_null)
    i.__scatterload_zeroinit                 0x1fff41b6   Section       14  handlers.o(i.__scatterload_zeroinit)
    i.__wdt_init                             0x1fff41c4   Section        0  patch.o(i.__wdt_init)
    i._efuse_chip_version_check              0x1fff41d4   Section        0  phy_sec_ext.o(i._efuse_chip_version_check)
    i._rom_sec_boot_init                     0x1fff41f4   Section        0  phy_sec_ext.o(i._rom_sec_boot_init)
    check_16MXtal_by_rcTracking              0x1fff4211   Thumb Code   316  patch.o(i.check_16MXtal_by_rcTracking)
    i.check_16MXtal_by_rcTracking            0x1fff4210   Section        0  patch.o(i.check_16MXtal_by_rcTracking)
    check_96MXtal_by_rcTracking              0x1fff4365   Thumb Code   246  patch.o(i.check_96MXtal_by_rcTracking)
    i.check_96MXtal_by_rcTracking            0x1fff4364   Section        0  patch.o(i.check_96MXtal_by_rcTracking)
    i.config_RTC1                            0x1fff4474   Section        0  patch.o(i.config_RTC1)
    i.efuse_init                             0x1fff4504   Section        0  phy_sec_ext.o(i.efuse_init)
    i.enterSleepProcess1                     0x1fff451c   Section        0  patch.o(i.enterSleepProcess1)
    i.finidv                                 0x1fff4548   Section        0  phy_sec_ext.o(i.finidv)
    i.hal_rom_boot_init                      0x1fff45d4   Section        0  patch.o(i.hal_rom_boot_init)
    i.llCalcMaxScanTime1                     0x1fff45dc   Section        0  patch.o(i.llCalcMaxScanTime1)
    i.llConnTerminate1                       0x1fff461c   Section        0  patch.o(i.llConnTerminate1)
    i.llProcessTxData1                       0x1fff4660   Section        0  patch.o(i.llProcessTxData1)
    i.llSecAdvAllow1                         0x1fff466c   Section        0  patch.o(i.llSecAdvAllow1)
    i.llSetupNextSlaveEvent1                 0x1fff46bc   Section        0  patch.o(i.llSetupNextSlaveEvent1)
    i.llSetupSecAdvEvt1                      0x1fff46e8   Section        0  patch.o(i.llSetupSecAdvEvt1)
    i.ll_adptive_adj_next_time1              0x1fff4780   Section        0  patch.o(i.ll_adptive_adj_next_time1)
    i.ll_generateTxBuffer1                   0x1fff483c   Section        0  patch.o(i.ll_generateTxBuffer1)
    i.ll_hw_go1                              0x1fff49e8   Section        0  patch.o(i.ll_hw_go1)
    i.ll_patch_slave                         0x1fff4b84   Section        0  patch.o(i.ll_patch_slave)
    i.ll_processBasicIRQ_SRX                 0x1fff4bd0   Section        0  patch.o(i.ll_processBasicIRQ_SRX)
    i.ll_processBasicIRQ_ScanTRX             0x1fff4be8   Section        0  patch.o(i.ll_processBasicIRQ_ScanTRX)
    i.ll_processBasicIRQ_secondaryAdvTRX     0x1fff4c00   Section        0  patch.o(i.ll_processBasicIRQ_secondaryAdvTRX)
    i.ll_processBasicIRQ_secondaryInitSRX    0x1fff4c18   Section        0  patch.o(i.ll_processBasicIRQ_secondaryInitSRX)
    i.ll_processBasicIRQ_secondaryScanSRX    0x1fff4c30   Section        0  patch.o(i.ll_processBasicIRQ_secondaryScanSRX)
    i.ll_scheduler2                          0x1fff4c48   Section        0  patch.o(i.ll_scheduler2)
    i.rc32k_calibration                      0x1fff4c90   Section        0  rf_phy_driver.o(i.rc32k_calibration)
    i.rc32k_cap_cal                          0x1fff4d04   Section        0  patch.o(i.rc32k_cap_cal)
    read_LL_remainder_time1                  0x1fff4d5d   Thumb Code    34  patch.o(i.read_LL_remainder_time1)
    i.read_LL_remainder_time1                0x1fff4d5c   Section        0  patch.o(i.read_LL_remainder_time1)
    i.rf_calibrate1                          0x1fff4d88   Section        0  rf_phy_driver.o(i.rf_calibrate1)
    i.rf_phy_ana_cfg                         0x1fff4db8   Section        0  rf_phy_driver.o(i.rf_phy_ana_cfg)
    i.rf_phy_bb_cfg                          0x1fff4ed0   Section        0  rf_phy_driver.o(i.rf_phy_bb_cfg)
    i.rf_phy_change_cfg0                     0x1fff5074   Section        0  rf_phy_driver.o(i.rf_phy_change_cfg0)
    i.rf_phy_ini                             0x1fff511c   Section        0  rf_phy_driver.o(i.rf_phy_ini)
    i.rf_phy_set_txPower                     0x1fff5158   Section        0  rf_phy_driver.o(i.rf_phy_set_txPower)
    i.rf_rxDcoc_cfg                          0x1fff51cc   Section        0  rf_phy_driver.o(i.rf_rxDcoc_cfg)
    i.rf_tpCal_gen_cap_arrary                0x1fff52ec   Section        0  rf_phy_driver.o(i.rf_tpCal_gen_cap_arrary)
    i.rf_tp_cal                              0x1fff5338   Section        0  rf_phy_driver.o(i.rf_tp_cal)
    i.wakeupProcess1                         0x1fff5454   Section        0  patch.o(i.wakeupProcess1)
    i.wakeup_init1                           0x1fff5630   Section        0  patch.o(i.wakeup_init1)
    .conststring                             0x1fff5770   Section       17  phy_sec_ext.o(.conststring)
    [Anonymous Symbol]                       0x1fff5784   Section        0  uart.o(.rodata..L__const.irq_tx_empty_handler.evt)
    [Anonymous Symbol]                       0x1fff5790   Section        0  jump_table.o(.rodata.str1.1)
    .data                                    0x1fff5850   Section       32  patch.o(.data)
    init_flag                                0x1fff5851   Data           1  patch.o(.data)
    gapMaxScanResponses                      0x1fff5870   Data           1  gap_centdevmgr.o(.data)
    .data                                    0x1fff5870   Section       24  gap_centdevmgr.o(.data)
    pGapScanRecs                             0x1fff5874   Data           4  gap_centdevmgr.o(.data)
    gapCentralCBs                            0x1fff5878   Data           8  gap_centdevmgr.o(.data)
    gapCentralConnCBs                        0x1fff5880   Data           8  gap_centdevmgr.o(.data)
    .data                                    0x1fff5888   Section       90  gap_configmgr.o(.data)
    gapCurrentRandomAddr                     0x1fff588e   Data           6  gap_configmgr.o(.data)
    gapParameters                            0x1fff5894   Data          78  gap_configmgr.o(.data)
    gapAdvAppTaskID                          0x1fff58e4   Data           1  gap_peridevmgr.o(.data)
    .data                                    0x1fff58e4   Section       28  gap_peridevmgr.o(.data)
    gapLimitedAdvertisingTimeout             0x1fff58e6   Data           2  gap_peridevmgr.o(.data)
    pGapAdvTokens                            0x1fff58e8   Data           4  gap_peridevmgr.o(.data)
    pGapAdData                               0x1fff58ec   Data           4  gap_peridevmgr.o(.data)
    pGapScanRspData                          0x1fff58f0   Data           4  gap_peridevmgr.o(.data)
    gapPeripheralCBs                         0x1fff58f4   Data          12  gap_peridevmgr.o(.data)
    .data                                    0x1fff5900   Section       12  gap_task.o(.data)
    pfnCentralCBs                            0x1fff5908   Data           4  gap_task.o(.data)
    .data                                    0x1fff590c   Section        4  phy_sec_ext.o(.data)
    .data                                    0x1fff5910   Section        1  phy_sec_ext.o(.data)
    .data                                    0x1fff5914   Section        8  gap_devmgr.o(.data)
    terminateAllTaskID                       0x1fff591c   Data           1  gap_linkmgr.o(.data)
    .data                                    0x1fff591c   Section       16  gap_linkmgr.o(.data)
    terminateReason                          0x1fff591d   Data           1  gap_linkmgr.o(.data)
    .data                                    0x1fff592c   Section        8  att_util.o(.data)
    .data                                    0x1fff5934   Section        1  l2cap_task.o(.data)
    [Anonymous Symbol]                       0x1fff5938   Section        0  pwrmgr.o(.data..L_MergedGlobals)
    s_config_swClk0                          0x1fff593c   Data           4  pwrmgr.o(.data..L_MergedGlobals)
    [Anonymous Symbol]                       0x1fff5940   Section        0  findmy.o(.data..L_MergedGlobals)
    findMy_BroadcasterCBs                    0x1fff5944   Data           8  findmy.o(.data..L_MergedGlobals)
    advertData                               0x1fff594c   Data          31  findmy.o(.data..L_MergedGlobals)
    publicKey                                0x1fff596b   Data          32  findmy.o(.data..L_MergedGlobals)
    gapRole_AdvEnabled                       0x1fff598c   Data           1  multi.o(.data..L_MergedGlobals)
    [Anonymous Symbol]                       0x1fff598c   Section        0  multi.o(.data..L_MergedGlobals)
    gapRole_AdvertDataLen                    0x1fff598d   Data           1  multi.o(.data..L_MergedGlobals)
    gapRole_AdvertOffTime                    0x1fff598e   Data           2  multi.o(.data..L_MergedGlobals)
    gapRole_AdvertData                       0x1fff5990   Data          31  multi.o(.data..L_MergedGlobals)
    pwm_gpio_map                             0x1fff59c4   Data           6  pwm.o(.data.pwm_gpio_map)
    [Anonymous Symbol]                       0x1fff59c4   Section        0  pwm.o(.data.pwm_gpio_map)
    s_xflashCtx                              0x1fff59d0   Data           8  flash.o(.data.s_xflashCtx)
    [Anonymous Symbol]                       0x1fff59d0   Section        0  flash.o(.data.s_xflashCtx)
    __tagsym$$used.2                         0x1fff59d8   Number         0  pwrmgr.o(_section_standby_var_)
    s_trng_seed                              0x1fff59e0   Data          16  patch.o(.bss)
    .bss                                     0x1fff59e0   Section       32  patch.o(.bss)
    s_trng_iv                                0x1fff59f0   Data          16  patch.o(.bss)
    gapParams                                0x1fff5a00   Data          28  gap_configmgr.o(.bss)
    .bss                                     0x1fff5a00   Section       28  gap_configmgr.o(.bss)
    .bss                                     0x1fff5a1c   Section       16  phy_sec_ext.o(.bss)
    linkDB                                   0x1fff5a2c   Data          40  linkdb.o(.bss)
    .bss                                     0x1fff5a2c   Section       60  linkdb.o(.bss)
    linkCBs                                  0x1fff5a54   Data          20  linkdb.o(.bss)
    .bss                                     0x1fff5a68   Section       46  l2cap_task.o(.bss)
    .bss                                     0x1fff5a98   Section      160  l2cap_util.o(.bss)
    pwm_en                                   0x1fff5b38   Data           1  pwm.o(.bss..L_MergedGlobals)
    [Anonymous Symbol]                       0x1fff5b38   Section        0  pwm.o(.bss..L_MergedGlobals)
    pwmCtx                                   0x1fff5b3a   Data          68  pwm.o(.bss..L_MergedGlobals)
    fs_init_flag                             0x1fff5b80   Data           1  fs.o(.bss..L_MergedGlobals)
    [Anonymous Symbol]                       0x1fff5b80   Section        0  fs.o(.bss..L_MergedGlobals)
    fs_sector_num                            0x1fff5b81   Data           1  fs.o(.bss..L_MergedGlobals)
    fs_offset_address                        0x1fff5b84   Data           4  fs.o(.bss..L_MergedGlobals)
    fs                                       0x1fff5b88   Data          20  fs.o(.bss..L_MergedGlobals)
    [Anonymous Symbol]                       0x1fff5b9c   Section        0  pwrmgr.o(.bss..L_MergedGlobals.1)
    sramRet_config                           0x1fff5ba4   Data           4  pwrmgr.o(.bss..L_MergedGlobals.1)
    [Anonymous Symbol]                       0x1fff5ba8   Section        0  findmy.o(.bss..L_MergedGlobals.2)
    gapRole_state                            0x1fff5bbc   Data           1  multi.o(.bss..L_MergedGlobals.2)
    [Anonymous Symbol]                       0x1fff5bbc   Section        0  multi.o(.bss..L_MergedGlobals.2)
    gapRole_TaskID                           0x1fff5bbd   Data           1  multi.o(.bss..L_MergedGlobals.2)
    gapRole_ScanRspDataLen                   0x1fff5bbe   Data           1  multi.o(.bss..L_MergedGlobals.2)
    gapRole_AdvEventType                     0x1fff5bbf   Data           1  multi.o(.bss..L_MergedGlobals.2)
    gapRole_AdvDirectType                    0x1fff5bc0   Data           1  multi.o(.bss..L_MergedGlobals.2)
    gapRole_AdvChanMap                       0x1fff5bc1   Data           1  multi.o(.bss..L_MergedGlobals.2)
    gapRole_AdvFilterPolicy                  0x1fff5bc2   Data           1  multi.o(.bss..L_MergedGlobals.2)
    gapRole_profileRole                      0x1fff5bc3   Data           1  multi.o(.bss..L_MergedGlobals.2)
    gapObserverRoleTaskId                    0x1fff5bc4   Data           1  multi.o(.bss..L_MergedGlobals.2)
    gapObserverRoleMaxScanRes                0x1fff5bc5   Data           1  multi.o(.bss..L_MergedGlobals.2)
    gapMultiRoleTaskId                       0x1fff5bc6   Data           1  multi.o(.bss..L_MergedGlobals.2)
    pGapRoles_AppCGs                         0x1fff5bc8   Data           4  multi.o(.bss..L_MergedGlobals.2)
    pGapObserverRoleCB                       0x1fff5bcc   Data           4  multi.o(.bss..L_MergedGlobals.2)
    gapRole_AdvDirectAddr                    0x1fff5bd0   Data           6  multi.o(.bss..L_MergedGlobals.2)
    gapRole_bdAddr                           0x1fff5bd6   Data           6  multi.o(.bss..L_MergedGlobals.2)
    gapObserverRoleBdAddr                    0x1fff5bdc   Data           6  multi.o(.bss..L_MergedGlobals.2)
    gapRole_ScanRspData                      0x1fff5be2   Data          31  multi.o(.bss..L_MergedGlobals.2)
    mCtx                                     0x1fff6fb4   Data         120  pwrmgr.o(.bss.mCtx)
    [Anonymous Symbol]                       0x1fff6fb4   Section        0  pwrmgr.o(.bss.mCtx)
    m_gpioCtx                                0x1fff702c   Data         300  gpio.o(.bss.m_gpioCtx)
    [Anonymous Symbol]                       0x1fff702c   Section        0  gpio.o(.bss.m_gpioCtx)
    m_uartCtx                                0x1fff7158   Data          64  uart.o(.bss.m_uartCtx)
    [Anonymous Symbol]                       0x1fff7158   Section        0  uart.o(.bss.m_uartCtx)
    s_ap_callback                            0x1fff741c   Data           4  timer.o(.bss.s_ap_callback)
    [Anonymous Symbol]                       0x1fff741c   Section        0  timer.o(.bss.s_ap_callback)
    STACK                                    0x1fff7428   Section     1024  startup_armcm0.o(STACK)

    Global Symbols

    Symbol Name                              Value     Ov Type        Size  Object(Section)

    BuildAttributes$$THM_ISAv3M$S$PE$A:L22$X:L11$S22$IEEE1$IW$~IW$USESV6$~STKCKD$USESV7$~SHL$OTIME$EBA8$MICROLIB$REQ8$PRES8$EABIv2 0x00000000   Number         0  anon$$obj.o ABSOLUTE
    __cpp_initialize__aeabi_                  - Undefined Weak Reference
    __cxa_finalize                            - Undefined Weak Reference
    _clock_init                               - Undefined Weak Reference
    _microlib_exit                            - Undefined Weak Reference
    __Vectors_Size                           0x00000008   Number         0  startup_armcm0.o ABSOLUTE
    bx_to_application                        0x000000d5   Thumb Code     0  bb_rom_sym_m0.txt ABSOLUTE
    P256_mul64                               0x000001f9   Thumb Code     0  bb_rom_sym_m0.txt ABSOLUTE
    P256_mul128                              0x0000029d   Thumb Code     0  bb_rom_sym_m0.txt ABSOLUTE
    P256_mulmod                              0x0000032d   Thumb Code     0  bb_rom_sym_m0.txt ABSOLUTE
    P256_sqr64                               0x00000567   Thumb Code     0  bb_rom_sym_m0.txt ABSOLUTE
    P256_sqr128                              0x000005c5   Thumb Code     0  bb_rom_sym_m0.txt ABSOLUTE
    P256_sqrmod                              0x00000641   Thumb Code     0  bb_rom_sym_m0.txt ABSOLUTE
    P256_addmod                              0x00000735   Thumb Code     0  bb_rom_sym_m0.txt ABSOLUTE
    P256_submod                              0x00000791   Thumb Code     0  bb_rom_sym_m0.txt ABSOLUTE
    P256_load_1                              0x000007c3   Thumb Code     0  bb_rom_sym_m0.txt ABSOLUTE
    P256_to_montgomery                       0x000007d7   Thumb Code     0  bb_rom_sym_m0.txt ABSOLUTE
    P256_from_montgomery                     0x00000801   Thumb Code     0  bb_rom_sym_m0.txt ABSOLUTE
    P256_point_is_on_curve                   0x0000081b   Thumb Code     0  bb_rom_sym_m0.txt ABSOLUTE
    P256_greater_or_equal_than               0x0000086d   Thumb Code     0  bb_rom_sym_m0.txt ABSOLUTE
    P256_negate_mod_m_if                     0x00000887   Thumb Code     0  bb_rom_sym_m0.txt ABSOLUTE
    P256_copy32                              0x000008a9   Thumb Code     0  bb_rom_sym_m0.txt ABSOLUTE
    P256_copy32_unaligned                    0x000008b5   Thumb Code     0  bb_rom_sym_m0.txt ABSOLUTE
    P256_select                              0x000008c7   Thumb Code     0  bb_rom_sym_m0.txt ABSOLUTE
    P256_double_j                            0x00000927   Thumb Code     0  bb_rom_sym_m0.txt ABSOLUTE
    P256_add_j                               0x0000092b   Thumb Code     0  bb_rom_sym_m0.txt ABSOLUTE
    P256_div2mod                             0x00000983   Thumb Code     0  bb_rom_sym_m0.txt ABSOLUTE
    P256_interpreter                         0x000009e9   Thumb Code     0  bb_rom_sym_m0.txt ABSOLUTE
    P256_sqrmod_many_and_mulmod              0x00000a4d   Thumb Code     0  bb_rom_sym_m0.txt ABSOLUTE
    P256_modinv                              0x00000a6d   Thumb Code     0  bb_rom_sym_m0.txt ABSOLUTE
    P256_jacobian_to_affine                  0x00000af7   Thumb Code     0  bb_rom_sym_m0.txt ABSOLUTE
    P256_abs_int                             0x00000b33   Thumb Code     0  bb_rom_sym_m0.txt ABSOLUTE
    P256_pointmult                           0x00000b41   Thumb Code     0  bb_rom_sym_m0.txt ABSOLUTE
    P256_ecdh_keygen                         0x00000d03   Thumb Code     0  bb_rom_sym_m0.txt ABSOLUTE
    P256_ecdh_shared_secret                  0x00000d0b   Thumb Code     0  bb_rom_sym_m0.txt ABSOLUTE
    __aeabi_uidiv                            0x00000e09   Thumb Code     0  bb_rom_sym_m0.txt ABSOLUTE
    __aeabi_uidivmod                         0x00000e09   Thumb Code     0  bb_rom_sym_m0.txt ABSOLUTE
    __aeabi_idiv                             0x00000e35   Thumb Code     0  bb_rom_sym_m0.txt ABSOLUTE
    __aeabi_idivmod                          0x00000e35   Thumb Code     0  bb_rom_sym_m0.txt ABSOLUTE
    __aeabi_memcpy                           0x00000e81   Thumb Code     0  bb_rom_sym_m0.txt ABSOLUTE
    __aeabi_memcpy4                          0x00000e81   Thumb Code     0  bb_rom_sym_m0.txt ABSOLUTE
    __aeabi_memcpy8                          0x00000e81   Thumb Code     0  bb_rom_sym_m0.txt ABSOLUTE
    __aeabi_memset                           0x00000ea5   Thumb Code     0  bb_rom_sym_m0.txt ABSOLUTE
    __aeabi_memset4                          0x00000ea5   Thumb Code     0  bb_rom_sym_m0.txt ABSOLUTE
    __aeabi_memset8                          0x00000ea5   Thumb Code     0  bb_rom_sym_m0.txt ABSOLUTE
    __aeabi_memclr                           0x00000eb3   Thumb Code     0  bb_rom_sym_m0.txt ABSOLUTE
    __aeabi_memclr4                          0x00000eb3   Thumb Code     0  bb_rom_sym_m0.txt ABSOLUTE
    __aeabi_memclr8                          0x00000eb3   Thumb Code     0  bb_rom_sym_m0.txt ABSOLUTE
    memset                                   0x00000eb7   Thumb Code     0  bb_rom_sym_m0.txt ABSOLUTE
    strlen                                   0x00000ec9   Thumb Code     0  bb_rom_sym_m0.txt ABSOLUTE
    strcmp                                   0x00000ed7   Thumb Code     0  bb_rom_sym_m0.txt ABSOLUTE
    memcmp                                   0x00000ef3   Thumb Code     0  bb_rom_sym_m0.txt ABSOLUTE
    strncmp                                  0x00000f0d   Thumb Code     0  bb_rom_sym_m0.txt ABSOLUTE
    strtok                                   0x00000f2d   Thumb Code     0  bb_rom_sym_m0.txt ABSOLUTE
    __aeabi_uread4                           0x00000f75   Thumb Code     0  bb_rom_sym_m0.txt ABSOLUTE
    __rt_uread4                              0x00000f75   Thumb Code     0  bb_rom_sym_m0.txt ABSOLUTE
    _uread4                                  0x00000f75   Thumb Code     0  bb_rom_sym_m0.txt ABSOLUTE
    strtoul                                  0x00000f89   Thumb Code     0  bb_rom_sym_m0.txt ABSOLUTE
    __rt_ctype_table                         0x00001001   Thumb Code     0  bb_rom_sym_m0.txt ABSOLUTE
    _strtoul                                 0x00001009   Thumb Code     0  bb_rom_sym_m0.txt ABSOLUTE
    GPIO_IRQHandler                          0x0000112d   Thumb Code     0  bb_rom_sym_m0.txt ABSOLUTE
    HCI_CommandCompleteEvent                 0x00001175   Thumb Code     0  bb_rom_sym_m0.txt ABSOLUTE
    HCI_CommandStatusEvent                   0x000011fd   Thumb Code     0  bb_rom_sym_m0.txt ABSOLUTE
    HCI_DataBufferOverflowEvent              0x00001251   Thumb Code     0  bb_rom_sym_m0.txt ABSOLUTE
    HCI_DisconnectCmd                        0x0000128d   Thumb Code     0  bb_rom_sym_m0.txt ABSOLUTE
    HCI_EXT_AdvEventNoticeCmd                0x000012a1   Thumb Code     0  bb_rom_sym_m0.txt ABSOLUTE
    HCI_EXT_BuildRevisionCmd                 0x000012a9   Thumb Code     0  bb_rom_sym_m0.txt ABSOLUTE
    HCI_EXT_ClkDivOnHaltCmd                  0x000012e5   Thumb Code     0  bb_rom_sym_m0.txt ABSOLUTE
    HCI_EXT_ConnEventNoticeCmd               0x0000130d   Thumb Code     0  bb_rom_sym_m0.txt ABSOLUTE
    HCI_EXT_DeclareNvUsageCmd                0x00001315   Thumb Code     0  bb_rom_sym_m0.txt ABSOLUTE
    HCI_EXT_DecryptCmd                       0x00001339   Thumb Code     0  bb_rom_sym_m0.txt ABSOLUTE
    HCI_EXT_DelaySleepCmd                    0x0000137d   Thumb Code     0  bb_rom_sym_m0.txt ABSOLUTE
    HCI_EXT_DisconnectImmedCmd               0x000013a5   Thumb Code     0  bb_rom_sym_m0.txt ABSOLUTE
    HCI_EXT_EnablePTMCmd                     0x000013cd   Thumb Code     0  bb_rom_sym_m0.txt ABSOLUTE
    HCI_EXT_EndModemTestCmd                  0x000013e1   Thumb Code     0  bb_rom_sym_m0.txt ABSOLUTE
    HCI_EXT_HaltDuringRfCmd                  0x00001409   Thumb Code     0  bb_rom_sym_m0.txt ABSOLUTE
    HCI_EXT_ModemHopTestTxCmd                0x00001431   Thumb Code     0  bb_rom_sym_m0.txt ABSOLUTE
    HCI_EXT_ModemTestRxCmd                   0x00001459   Thumb Code     0  bb_rom_sym_m0.txt ABSOLUTE
    HCI_EXT_ModemTestTxCmd                   0x00001481   Thumb Code     0  bb_rom_sym_m0.txt ABSOLUTE
    HCI_EXT_NumComplPktsLimitCmd             0x000014a5   Thumb Code     0  bb_rom_sym_m0.txt ABSOLUTE
    HCI_EXT_OnePktPerEvtCmd                  0x000014c9   Thumb Code     0  bb_rom_sym_m0.txt ABSOLUTE
    HCI_EXT_OverlappedProcessingCmd          0x000014f5   Thumb Code     0  bb_rom_sym_m0.txt ABSOLUTE
    HCI_EXT_PERbyChanCmd                     0x0000151d   Thumb Code     0  bb_rom_sym_m0.txt ABSOLUTE
    HCI_EXT_PacketErrorRateCmd               0x00001541   Thumb Code     0  bb_rom_sym_m0.txt ABSOLUTE
    HCI_EXT_ResetSystemCmd                   0x00001575   Thumb Code     0  bb_rom_sym_m0.txt ABSOLUTE
    HCI_EXT_SaveFreqTuneCmd                  0x0000159d   Thumb Code     0  bb_rom_sym_m0.txt ABSOLUTE
    HCI_EXT_SetBDADDRCmd                     0x000015c5   Thumb Code     0  bb_rom_sym_m0.txt ABSOLUTE
    HCI_EXT_SetFastTxResponseTimeCmd         0x00001601   Thumb Code     0  bb_rom_sym_m0.txt ABSOLUTE
    HCI_EXT_SetFreqTuneCmd                   0x00001629   Thumb Code     0  bb_rom_sym_m0.txt ABSOLUTE
    HCI_EXT_SetLocalSupportedFeaturesCmd     0x00001651   Thumb Code     0  bb_rom_sym_m0.txt ABSOLUTE
    HCI_EXT_SetMaxDtmTxPowerCmd              0x00001679   Thumb Code     0  bb_rom_sym_m0.txt ABSOLUTE
    HCI_EXT_SetRxGainCmd                     0x000016a1   Thumb Code     0  bb_rom_sym_m0.txt ABSOLUTE
    HCI_EXT_SetSCACmd                        0x000016d1   Thumb Code     0  bb_rom_sym_m0.txt ABSOLUTE
    HCI_EXT_SetSlaveLatencyOverrideCmd       0x000016f9   Thumb Code     0  bb_rom_sym_m0.txt ABSOLUTE
    HCI_EXT_SetTxPowerCmd                    0x00001721   Thumb Code     0  bb_rom_sym_m0.txt ABSOLUTE
    HCI_ExtTaskRegister                      0x00001751   Thumb Code     0  bb_rom_sym_m0.txt ABSOLUTE
    HCI_GAPTaskRegister                      0x0000175d   Thumb Code     0  bb_rom_sym_m0.txt ABSOLUTE
    HCI_HardwareErrorEvent                   0x00001769   Thumb Code     0  bb_rom_sym_m0.txt ABSOLUTE
    HCI_HostBufferSizeCmd                    0x000017b1   Thumb Code     0  bb_rom_sym_m0.txt ABSOLUTE
    HCI_HostNumCompletedPktCmd               0x000017e1   Thumb Code     0  bb_rom_sym_m0.txt ABSOLUTE
    HCI_Init                                 0x0000183d   Thumb Code     0  bb_rom_sym_m0.txt ABSOLUTE
    HCI_L2CAPTaskRegister                    0x00001879   Thumb Code     0  bb_rom_sym_m0.txt ABSOLUTE
    HCI_LE_AddDevToResolvingListCmd          0x000018a1   Thumb Code     0  bb_rom_sym_m0.txt ABSOLUTE
    HCI_LE_AddWhiteListCmd                   0x000018bd   Thumb Code     0  bb_rom_sym_m0.txt ABSOLUTE
    HCI_LE_ClearAdvSetsCmd                   0x000018e1   Thumb Code     0  bb_rom_sym_m0.txt ABSOLUTE
    HCI_LE_ClearResolvingListCmd             0x00001919   Thumb Code     0  bb_rom_sym_m0.txt ABSOLUTE
    HCI_LE_ClearWhiteListCmd                 0x00001935   Thumb Code     0  bb_rom_sym_m0.txt ABSOLUTE
    HCI_LE_Connection_CTE_Request_EnableCmd  0x0000196d   Thumb Code     0  bb_rom_sym_m0.txt ABSOLUTE
    HCI_LE_Connection_CTE_Response_EnableCmd 0x00001999   Thumb Code     0  bb_rom_sym_m0.txt ABSOLUTE
    HCI_LE_ConnectionlessCTE_TransmitEnableCmd 0x000019c1   Thumb Code     0  bb_rom_sym_m0.txt ABSOLUTE
    HCI_LE_ConnectionlessCTE_TransmitParamCmd 0x000019dd   Thumb Code     0  bb_rom_sym_m0.txt ABSOLUTE
    HCI_LE_ConnectionlessIQ_SampleEnableCmd  0x00001a01   Thumb Code     0  bb_rom_sym_m0.txt ABSOLUTE
    HCI_LE_CreateConnCancelCmd               0x00001a31   Thumb Code     0  bb_rom_sym_m0.txt ABSOLUTE
    HCI_LE_CreateConnCmd                     0x00001a4d   Thumb Code     0  bb_rom_sym_m0.txt ABSOLUTE
    HCI_LE_EncryptCmd                        0x00001a89   Thumb Code     0  bb_rom_sym_m0.txt ABSOLUTE
    HCI_LE_ExtendedCreateConnectionCmd       0x00001ac1   Thumb Code     0  bb_rom_sym_m0.txt ABSOLUTE
    HCI_LE_PeriodicAdvertisingCreateSyncCancelCmd 0x00001b59   Thumb Code     0  bb_rom_sym_m0.txt ABSOLUTE
    HCI_LE_PeriodicAdvertisingCreateSyncCmd  0x00001b75   Thumb Code     0  bb_rom_sym_m0.txt ABSOLUTE
    HCI_LE_PeriodicAdvertisingTerminateSyncCmd 0x00001b9d   Thumb Code     0  bb_rom_sym_m0.txt ABSOLUTE
    HCI_LE_READ_Anatenna_InfoCmd             0x00001bb9   Thumb Code     0  bb_rom_sym_m0.txt ABSOLUTE
    HCI_LE_RandCmd                           0x00001bd9   Thumb Code     0  bb_rom_sym_m0.txt ABSOLUTE
    HCI_LE_ReadAdvChanTxPowerCmd             0x00001c09   Thumb Code     0  bb_rom_sym_m0.txt ABSOLUTE
    HCI_LE_ReadBufSizeCmd                    0x00001c29   Thumb Code     0  bb_rom_sym_m0.txt ABSOLUTE
    HCI_LE_ReadChannelMapCmd                 0x00001c4d   Thumb Code     0  bb_rom_sym_m0.txt ABSOLUTE
    HCI_LE_ReadLocalSupportedFeaturesCmd     0x00001c99   Thumb Code     0  bb_rom_sym_m0.txt ABSOLUTE
    HCI_LE_ReadMaxDataLengthCmd              0x00001cb9   Thumb Code     0  bb_rom_sym_m0.txt ABSOLUTE
    HCI_LE_ReadMaximumAdvDataLengthCmd       0x00001ce9   Thumb Code     0  bb_rom_sym_m0.txt ABSOLUTE
    HCI_LE_ReadNumberOfSupportAdvSetCmd      0x00001d11   Thumb Code     0  bb_rom_sym_m0.txt ABSOLUTE
    HCI_LE_ReadPhyMode                       0x00001d71   Thumb Code     0  bb_rom_sym_m0.txt ABSOLUTE
    HCI_LE_ReadRemoteUsedFeaturesCmd         0x00001db1   Thumb Code     0  bb_rom_sym_m0.txt ABSOLUTE
    HCI_LE_ReadResolvingListSizeCmd          0x00001dc5   Thumb Code     0  bb_rom_sym_m0.txt ABSOLUTE
    HCI_LE_ReadSuggestedDefaultDataLengthCmd 0x00001de5   Thumb Code     0  bb_rom_sym_m0.txt ABSOLUTE
    HCI_LE_ReadSupportedStatesCmd            0x00001e15   Thumb Code     0  bb_rom_sym_m0.txt ABSOLUTE
    HCI_LE_ReadWhiteListSizeCmd              0x00001e3d   Thumb Code     0  bb_rom_sym_m0.txt ABSOLUTE
    HCI_LE_ReceiverTestCmd                   0x00001e9d   Thumb Code     0  bb_rom_sym_m0.txt ABSOLUTE
    HCI_LE_RemoveAdvSetCmd                   0x00001eb1   Thumb Code     0  bb_rom_sym_m0.txt ABSOLUTE
    HCI_LE_RemoveResolvingListCmd            0x00001ee9   Thumb Code     0  bb_rom_sym_m0.txt ABSOLUTE
    HCI_LE_RemoveWhiteListCmd                0x00001f0d   Thumb Code     0  bb_rom_sym_m0.txt ABSOLUTE
    HCI_LE_SetAddressResolutionEnableCmd     0x00001f31   Thumb Code     0  bb_rom_sym_m0.txt ABSOLUTE
    HCI_LE_SetAdvDataCmd                     0x00001f4d   Thumb Code     0  bb_rom_sym_m0.txt ABSOLUTE
    HCI_LE_SetAdvEnableCmd                   0x00001f69   Thumb Code     0  bb_rom_sym_m0.txt ABSOLUTE
    HCI_LE_SetAdvParamCmd                    0x00001f85   Thumb Code     0  bb_rom_sym_m0.txt ABSOLUTE
    HCI_LE_SetDataLengthCmd                  0x00001fb1   Thumb Code     0  bb_rom_sym_m0.txt ABSOLUTE
    HCI_LE_SetDefaultPhyMode                 0x00001fd9   Thumb Code     0  bb_rom_sym_m0.txt ABSOLUTE
    HCI_LE_SetEventMaskCmd                   0x00001ff5   Thumb Code     0  bb_rom_sym_m0.txt ABSOLUTE
    HCI_LE_SetExtAdvDataCmd                  0x0000202d   Thumb Code     0  bb_rom_sym_m0.txt ABSOLUTE
    HCI_LE_SetExtAdvEnableCmd                0x0000204d   Thumb Code     0  bb_rom_sym_m0.txt ABSOLUTE
    HCI_LE_SetExtAdvParamCmd                 0x0000206d   Thumb Code     0  bb_rom_sym_m0.txt ABSOLUTE
    HCI_LE_SetExtAdvSetRandomAddressCmd      0x000020c1   Thumb Code     0  bb_rom_sym_m0.txt ABSOLUTE
    HCI_LE_SetExtScanRspDataCmd              0x000020dd   Thumb Code     0  bb_rom_sym_m0.txt ABSOLUTE
    HCI_LE_SetExtendedScanEnableCmd          0x000020fd   Thumb Code     0  bb_rom_sym_m0.txt ABSOLUTE
    HCI_LE_SetExtendedScanParametersCmd      0x00002119   Thumb Code     0  bb_rom_sym_m0.txt ABSOLUTE
    HCI_LE_SetPeriodicAdvDataCmd             0x00002159   Thumb Code     0  bb_rom_sym_m0.txt ABSOLUTE
    HCI_LE_SetPeriodicAdvEnableCmd           0x00002175   Thumb Code     0  bb_rom_sym_m0.txt ABSOLUTE
    HCI_LE_SetPeriodicAdvParameterCmd        0x00002191   Thumb Code     0  bb_rom_sym_m0.txt ABSOLUTE
    HCI_LE_SetPhyMode                        0x000021ad   Thumb Code     0  bb_rom_sym_m0.txt ABSOLUTE
    HCI_LE_SetRandomAddressCmd               0x000021c5   Thumb Code     0  bb_rom_sym_m0.txt ABSOLUTE
    HCI_LE_SetResolvablePrivateAddressTimeoutCmd 0x000021e9   Thumb Code     0  bb_rom_sym_m0.txt ABSOLUTE
    HCI_LE_SetScanEnableCmd                  0x00002219   Thumb Code     0  bb_rom_sym_m0.txt ABSOLUTE
    HCI_LE_SetScanParamCmd                   0x00002235   Thumb Code     0  bb_rom_sym_m0.txt ABSOLUTE
    HCI_LE_SetScanRspDataCmd                 0x00002255   Thumb Code     0  bb_rom_sym_m0.txt ABSOLUTE
    HCI_LE_Set_ConnectionCTE_ReceiveParamCmd 0x00002271   Thumb Code     0  bb_rom_sym_m0.txt ABSOLUTE
    HCI_LE_Set_ConnectionCTE_TransmitParamCmd 0x0000229d   Thumb Code     0  bb_rom_sym_m0.txt ABSOLUTE
    HCI_LE_StartEncyptCmd                    0x000022e1   Thumb Code     0  bb_rom_sym_m0.txt ABSOLUTE
    HCI_LE_TestEndCmd                        0x000022f5   Thumb Code     0  bb_rom_sym_m0.txt ABSOLUTE
    HCI_LE_TransmitterTestCmd                0x0000231d   Thumb Code     0  bb_rom_sym_m0.txt ABSOLUTE
    HCI_LE_WriteSuggestedDefaultDataLengthCmd 0x00002339   Thumb Code     0  bb_rom_sym_m0.txt ABSOLUTE
    HCI_NumOfCompletedPacketsEvent           0x00002371   Thumb Code     0  bb_rom_sym_m0.txt ABSOLUTE
    HCI_PPLUS_AdvEventDoneNoticeCmd          0x00002401   Thumb Code     0  bb_rom_sym_m0.txt ABSOLUTE
    HCI_PPLUS_ConnEventDoneNoticeCmd         0x00002421   Thumb Code     0  bb_rom_sym_m0.txt ABSOLUTE
    HCI_PPLUS_DateLengthChangedNoticeCmd     0x00002461   Thumb Code     0  bb_rom_sym_m0.txt ABSOLUTE
    HCI_PPLUS_ExtendTRXCmd                   0x000024a1   Thumb Code     0  bb_rom_sym_m0.txt ABSOLUTE
    HCI_PPLUS_PhyUpdateNoticeCmd             0x000024bd   Thumb Code     0  bb_rom_sym_m0.txt ABSOLUTE
    HCI_ProcessEvent                         0x000024fd   Thumb Code     0  bb_rom_sym_m0.txt ABSOLUTE
    HCI_ReadBDADDRCmd                        0x00002551   Thumb Code     0  bb_rom_sym_m0.txt ABSOLUTE
    HCI_ReadLocalSupportedCommandsCmd        0x00002571   Thumb Code     0  bb_rom_sym_m0.txt ABSOLUTE
    HCI_ReadLocalSupportedFeaturesCmd        0x00002589   Thumb Code     0  bb_rom_sym_m0.txt ABSOLUTE
    HCI_ReadLocalVersionInfoCmd              0x000025ad   Thumb Code     0  bb_rom_sym_m0.txt ABSOLUTE
    HCI_ReadRemoteVersionInfoCmd             0x000025f5   Thumb Code     0  bb_rom_sym_m0.txt ABSOLUTE
    HCI_ReadRssiCmd                          0x00002625   Thumb Code     0  bb_rom_sym_m0.txt ABSOLUTE
    HCI_ReadTransmitPowerLevelCmd            0x00002651   Thumb Code     0  bb_rom_sym_m0.txt ABSOLUTE
    HCI_ResetCmd                             0x0000267d   Thumb Code     0  bb_rom_sym_m0.txt ABSOLUTE
    HCI_ReverseBytes                         0x000026a9   Thumb Code     0  bb_rom_sym_m0.txt ABSOLUTE
    HCI_SMPTaskRegister                      0x000026c9   Thumb Code     0  bb_rom_sym_m0.txt ABSOLUTE
    HCI_SendCommandCompleteEvent             0x000026d5   Thumb Code     0  bb_rom_sym_m0.txt ABSOLUTE
    HCI_SendCommandStatusEvent               0x0000277d   Thumb Code     0  bb_rom_sym_m0.txt ABSOLUTE
    HCI_SendControllerToHostEvent            0x0000279d   Thumb Code     0  bb_rom_sym_m0.txt ABSOLUTE
    HCI_SendDataPkt                          0x000027e9   Thumb Code     0  bb_rom_sym_m0.txt ABSOLUTE
    HCI_SetControllerToHostFlowCtrlCmd       0x00002819   Thumb Code     0  bb_rom_sym_m0.txt ABSOLUTE
    HCI_SetEventMaskCmd                      0x0000285d   Thumb Code     0  bb_rom_sym_m0.txt ABSOLUTE
    HCI_TestAppTaskRegister                  0x0000288d   Thumb Code     0  bb_rom_sym_m0.txt ABSOLUTE
    HCI_ValidConnTimeParams                  0x00002899   Thumb Code     0  bb_rom_sym_m0.txt ABSOLUTE
    HCI_VendorSpecifcCommandCompleteEvent    0x000028d9   Thumb Code     0  bb_rom_sym_m0.txt ABSOLUTE
    HCI_bm_alloc                             0x000028e9   Thumb Code     0  bb_rom_sym_m0.txt ABSOLUTE
    HardFault_Handler                        0x000028f1   Thumb Code     0  bb_rom_sym_m0.txt ABSOLUTE
    HardFault_IRQHandler                     0x00002909   Thumb Code     0  bb_rom_sym_m0.txt ABSOLUTE
    LL_AddResolvingListLDevice               0x000029dd   Thumb Code     0  bb_rom_sym_m0.txt ABSOLUTE
    LL_AddWhiteListDevice                    0x00002a95   Thumb Code     0  bb_rom_sym_m0.txt ABSOLUTE
    LL_AdvReportCback                        0x00002b11   Thumb Code     0  bb_rom_sym_m0.txt ABSOLUTE
    LL_CTE_Report_FailedCback                0x00002ca1   Thumb Code     0  bb_rom_sym_m0.txt ABSOLUTE
    LL_ChanMapUpdate                         0x00002d0d   Thumb Code     0  bb_rom_sym_m0.txt ABSOLUTE
    LL_ClearAdvSets                          0x00002e2d   Thumb Code     0  bb_rom_sym_m0.txt ABSOLUTE
    LL_ClearResolvingList                    0x00002f41   Thumb Code     0  bb_rom_sym_m0.txt ABSOLUTE
    LL_ClearWhiteList                        0x00002fbd   Thumb Code     0  bb_rom_sym_m0.txt ABSOLUTE
    LL_ConnActive                            0x00003011   Thumb Code     0  bb_rom_sym_m0.txt ABSOLUTE
    LL_ConnParamUpdateCback                  0x00003039   Thumb Code     0  bb_rom_sym_m0.txt ABSOLUTE
    LL_ConnUpdate                            0x000030e5   Thumb Code     0  bb_rom_sym_m0.txt ABSOLUTE
    LL_ConnectionCompleteCback               0x000031b9   Thumb Code     0  bb_rom_sym_m0.txt ABSOLUTE
    LL_ConnectionIQReportCback               0x000032d5   Thumb Code     0  bb_rom_sym_m0.txt ABSOLUTE
    LL_Connection_CTE_Request_Enable         0x000033e5   Thumb Code     0  bb_rom_sym_m0.txt ABSOLUTE
    LL_Connection_CTE_Response_Enable        0x00003499   Thumb Code     0  bb_rom_sym_m0.txt ABSOLUTE
    LL_ConnectionlessCTE_TransmitEnable      0x00003505   Thumb Code     0  bb_rom_sym_m0.txt ABSOLUTE
    LL_ConnectionlessCTE_TransmitParam       0x000035e5   Thumb Code     0  bb_rom_sym_m0.txt ABSOLUTE
    LL_ConnectionlessIQReportCback           0x000036c1   Thumb Code     0  bb_rom_sym_m0.txt ABSOLUTE
    LL_ConnectionlessIQ_SampleEnable         0x000037c5   Thumb Code     0  bb_rom_sym_m0.txt ABSOLUTE
    LL_CreateConn                            0x00003901   Thumb Code     0  bb_rom_sym_m0.txt ABSOLUTE
    LL_CreateConn0                           0x00003949   Thumb Code     0  bb_rom_sym_m0.txt ABSOLUTE
    LL_CreateConnCancel                      0x00003c91   Thumb Code     0  bb_rom_sym_m0.txt ABSOLUTE
    LL_CtrlToHostFlowControl                 0x00003d59   Thumb Code     0  bb_rom_sym_m0.txt ABSOLUTE
    LL_DataLengthChangeCback                 0x00003d71   Thumb Code     0  bb_rom_sym_m0.txt ABSOLUTE
    LL_DirectTestEnd                         0x00003e3d   Thumb Code     0  bb_rom_sym_m0.txt ABSOLUTE
    LL_DirectTestTxTest                      0x00003e95   Thumb Code     0  bb_rom_sym_m0.txt ABSOLUTE
    LL_Disconnect                            0x00003eb1   Thumb Code     0  bb_rom_sym_m0.txt ABSOLUTE
    LL_DisconnectCback                       0x00003f41   Thumb Code     0  bb_rom_sym_m0.txt ABSOLUTE
    LL_ENC_AES128_Encrypt                    0x00003fc5   Thumb Code     0  bb_rom_sym_m0.txt ABSOLUTE
    LL_ENC_AES128_Encrypt0                   0x00003fdd   Thumb Code     0  bb_rom_sym_m0.txt ABSOLUTE
    LL_ENC_Decrypt                           0x000040ed   Thumb Code     0  bb_rom_sym_m0.txt ABSOLUTE
    LL_ENC_Decrypt0                          0x00004105   Thumb Code     0  bb_rom_sym_m0.txt ABSOLUTE
    LL_ENC_Encrypt                           0x00004261   Thumb Code     0  bb_rom_sym_m0.txt ABSOLUTE
    LL_ENC_Encrypt0                          0x00004279   Thumb Code     0  bb_rom_sym_m0.txt ABSOLUTE
    LL_ENC_GenDeviceIV                       0x000043c1   Thumb Code     0  bb_rom_sym_m0.txt ABSOLUTE
    LL_ENC_GenDeviceSKD                      0x000043f1   Thumb Code     0  bb_rom_sym_m0.txt ABSOLUTE
    LL_ENC_GenerateNonce                     0x00004421   Thumb Code     0  bb_rom_sym_m0.txt ABSOLUTE
    LL_ENC_GeneratePseudoRandNum             0x00004459   Thumb Code     0  bb_rom_sym_m0.txt ABSOLUTE
    LL_ENC_GenerateTrueRandNum               0x00004469   Thumb Code     0  bb_rom_sym_m0.txt ABSOLUTE
    LL_ENC_LoadKey                           0x00004489   Thumb Code     0  bb_rom_sym_m0.txt ABSOLUTE
    LL_ENC_ReverseBytes                      0x000044e1   Thumb Code     0  bb_rom_sym_m0.txt ABSOLUTE
    LL_ENC_sm_ah                             0x00004501   Thumb Code     0  bb_rom_sym_m0.txt ABSOLUTE
    LL_EXT_AdvEventNotice                    0x00004543   Thumb Code     0  bb_rom_sym_m0.txt ABSOLUTE
    LL_EXT_BuildRevision                     0x00004547   Thumb Code     0  bb_rom_sym_m0.txt ABSOLUTE
    LL_EXT_ClkDivOnHalt                      0x0000454b   Thumb Code     0  bb_rom_sym_m0.txt ABSOLUTE
    LL_EXT_ConnEventNotice                   0x0000454f   Thumb Code     0  bb_rom_sym_m0.txt ABSOLUTE
    LL_EXT_DeclareNvUsage                    0x00004553   Thumb Code     0  bb_rom_sym_m0.txt ABSOLUTE
    LL_EXT_Decrypt                           0x00004557   Thumb Code     0  bb_rom_sym_m0.txt ABSOLUTE
    LL_EXT_DelaySleep                        0x0000455b   Thumb Code     0  bb_rom_sym_m0.txt ABSOLUTE
    LL_EXT_DisconnectImmed                   0x0000455f   Thumb Code     0  bb_rom_sym_m0.txt ABSOLUTE
    LL_EXT_EndModemTest                      0x00004563   Thumb Code     0  bb_rom_sym_m0.txt ABSOLUTE
    LL_EXT_HaltDuringRf                      0x00004567   Thumb Code     0  bb_rom_sym_m0.txt ABSOLUTE
    LL_EXT_Init_IQ_pBuff                     0x0000456d   Thumb Code     0  bb_rom_sym_m0.txt ABSOLUTE
    LL_EXT_MapPmIoPort                       0x00004581   Thumb Code     0  bb_rom_sym_m0.txt ABSOLUTE
    LL_EXT_ModemHopTestTx                    0x00004585   Thumb Code     0  bb_rom_sym_m0.txt ABSOLUTE
    LL_EXT_ModemTestRx                       0x00004589   Thumb Code     0  bb_rom_sym_m0.txt ABSOLUTE
    LL_EXT_ModemTestTx                       0x0000458d   Thumb Code     0  bb_rom_sym_m0.txt ABSOLUTE
    LL_EXT_NumComplPktsLimit                 0x00004591   Thumb Code     0  bb_rom_sym_m0.txt ABSOLUTE
    LL_EXT_OnePacketPerEvent                 0x000045ad   Thumb Code     0  bb_rom_sym_m0.txt ABSOLUTE
    LL_EXT_OverlappedProcessing              0x000045b1   Thumb Code     0  bb_rom_sym_m0.txt ABSOLUTE
    LL_EXT_PERbyChan                         0x000045b5   Thumb Code     0  bb_rom_sym_m0.txt ABSOLUTE
    LL_EXT_PacketErrorRate                   0x000045b9   Thumb Code     0  bb_rom_sym_m0.txt ABSOLUTE
    LL_EXT_PacketErrorRateCback              0x000045bd   Thumb Code     0  bb_rom_sym_m0.txt ABSOLUTE
    LL_EXT_ResetSystem                       0x000045f9   Thumb Code     0  bb_rom_sym_m0.txt ABSOLUTE
    LL_EXT_SaveFreqTune                      0x000045fd   Thumb Code     0  bb_rom_sym_m0.txt ABSOLUTE
    LL_EXT_SetBDADDR                         0x00004601   Thumb Code     0  bb_rom_sym_m0.txt ABSOLUTE
    LL_EXT_SetFastTxResponseTime             0x00004605   Thumb Code     0  bb_rom_sym_m0.txt ABSOLUTE
    LL_EXT_SetFreqTune                       0x00004609   Thumb Code     0  bb_rom_sym_m0.txt ABSOLUTE
    LL_EXT_SetLocalSupportedFeatures         0x0000460d   Thumb Code     0  bb_rom_sym_m0.txt ABSOLUTE
    LL_EXT_SetMaxDtmTxPower                  0x00004611   Thumb Code     0  bb_rom_sym_m0.txt ABSOLUTE
    LL_EXT_SetRxGain                         0x00004615   Thumb Code     0  bb_rom_sym_m0.txt ABSOLUTE
    LL_EXT_SetRxGainCback                    0x00004619   Thumb Code     0  bb_rom_sym_m0.txt ABSOLUTE
    LL_EXT_SetSCA                            0x00004635   Thumb Code     0  bb_rom_sym_m0.txt ABSOLUTE
    LL_EXT_SetSlaveLatencyOverride           0x00004639   Thumb Code     0  bb_rom_sym_m0.txt ABSOLUTE
    LL_EXT_SetTxPower                        0x0000463d   Thumb Code     0  bb_rom_sym_m0.txt ABSOLUTE
    LL_EXT_SetTxPowerCback                   0x00004679   Thumb Code     0  bb_rom_sym_m0.txt ABSOLUTE
    LL_EncChangeCback                        0x00004699   Thumb Code     0  bb_rom_sym_m0.txt ABSOLUTE
    LL_EncKeyRefreshCback                    0x00004715   Thumb Code     0  bb_rom_sym_m0.txt ABSOLUTE
    LL_EncLtkReqCback                        0x00004831   Thumb Code     0  bb_rom_sym_m0.txt ABSOLUTE
    LL_Encrypt                               0x000048e5   Thumb Code     0  bb_rom_sym_m0.txt ABSOLUTE
    LL_ExtAdvReportCback                     0x00004a8d   Thumb Code     0  bb_rom_sym_m0.txt ABSOLUTE
    LL_ExtendedCreateConnection              0x00004bfd   Thumb Code     0  bb_rom_sym_m0.txt ABSOLUTE
    LL_IRQHandler                            0x00004e25   Thumb Code     0  bb_rom_sym_m0.txt ABSOLUTE
    LL_Init                                  0x00004eb1   Thumb Code     0  bb_rom_sym_m0.txt ABSOLUTE
    LL_InitConnectContext                    0x00005045   Thumb Code     0  bb_rom_sym_m0.txt ABSOLUTE
    LL_InitExtendedAdv                       0x0000511d   Thumb Code     0  bb_rom_sym_m0.txt ABSOLUTE
    LL_InitExtendedScan                      0x000051b5   Thumb Code     0  bb_rom_sym_m0.txt ABSOLUTE
    LL_InitPeriodicAdv                       0x000051c5   Thumb Code     0  bb_rom_sym_m0.txt ABSOLUTE
    LL_NumEmptyWlEntries                     0x00005291   Thumb Code     0  bb_rom_sym_m0.txt ABSOLUTE
    LL_PLUS_DisableSlaveLatency              0x000052a5   Thumb Code     0  bb_rom_sym_m0.txt ABSOLUTE
    LL_PLUS_EnableSlaveLatency               0x00005435   Thumb Code     0  bb_rom_sym_m0.txt ABSOLUTE
    LL_PLUS_GetAdvDataExtendData             0x0000548d   Thumb Code     0  bb_rom_sym_m0.txt ABSOLUTE
    LL_PLUS_GetScanRequestExtendData         0x00005495   Thumb Code     0  bb_rom_sym_m0.txt ABSOLUTE
    LL_PLUS_GetScanerAddr                    0x000054bd   Thumb Code     0  bb_rom_sym_m0.txt ABSOLUTE
    LL_PLUS_PerStasReadByChn                 0x000054d5   Thumb Code     0  bb_rom_sym_m0.txt ABSOLUTE
    LL_PLUS_PerStatsReset                    0x00005519   Thumb Code     0  bb_rom_sym_m0.txt ABSOLUTE
    LL_PLUS_PerStats_Init                    0x00005535   Thumb Code     0  bb_rom_sym_m0.txt ABSOLUTE
    LL_PLUS_SetAdvDataFilterCB               0x00005545   Thumb Code     0  bb_rom_sym_m0.txt ABSOLUTE
    LL_PLUS_SetScanRequestData               0x00005551   Thumb Code     0  bb_rom_sym_m0.txt ABSOLUTE
    LL_PLUS_SetScanRequestFilterCB           0x00005579   Thumb Code     0  bb_rom_sym_m0.txt ABSOLUTE
    LL_PLUS_SetScanRsqData                   0x00005585   Thumb Code     0  bb_rom_sym_m0.txt ABSOLUTE
    LL_PLUS_SetScanRsqDataByIndex            0x000055b1   Thumb Code     0  bb_rom_sym_m0.txt ABSOLUTE
    LL_PeriodicAdvertisingCreateSync         0x000055bd   Thumb Code     0  bb_rom_sym_m0.txt ABSOLUTE
    LL_PeriodicAdvertisingCreateSyncCancel   0x0000560d   Thumb Code     0  bb_rom_sym_m0.txt ABSOLUTE
    LL_PeriodicAdvertisingTerminateSync      0x00005635   Thumb Code     0  bb_rom_sym_m0.txt ABSOLUTE
    LL_PhyUpdate                             0x00005655   Thumb Code     0  bb_rom_sym_m0.txt ABSOLUTE
    LL_PhyUpdate0                            0x0000566d   Thumb Code     0  bb_rom_sym_m0.txt ABSOLUTE
    LL_PhyUpdateCompleteCback                0x00005725   Thumb Code     0  bb_rom_sym_m0.txt ABSOLUTE
    LL_PrdAdvReportCback                     0x000057c9   Thumb Code     0  bb_rom_sym_m0.txt ABSOLUTE
    LL_PrdAdvSyncEstablishedCback            0x000058b5   Thumb Code     0  bb_rom_sym_m0.txt ABSOLUTE
    LL_PrdAdvSyncLostCback                   0x00005989   Thumb Code     0  bb_rom_sym_m0.txt ABSOLUTE
    LL_ProcessEvent                          0x000059f1   Thumb Code     0  bb_rom_sym_m0.txt ABSOLUTE
    LL_PseudoRand                            0x00005dd9   Thumb Code     0  bb_rom_sym_m0.txt ABSOLUTE
    LL_READ_Anatenna_Info                    0x00005ddd   Thumb Code     0  bb_rom_sym_m0.txt ABSOLUTE
    LL_RX_bm_alloc                           0x00005df1   Thumb Code     0  bb_rom_sym_m0.txt ABSOLUTE
    LL_Rand                                  0x00005e05   Thumb Code     0  bb_rom_sym_m0.txt ABSOLUTE
    LL_RandCback                             0x00005e65   Thumb Code     0  bb_rom_sym_m0.txt ABSOLUTE
    LL_ReadAdvChanTxPower                    0x00005e89   Thumb Code     0  bb_rom_sym_m0.txt ABSOLUTE
    LL_ReadBDADDR                            0x00005eb9   Thumb Code     0  bb_rom_sym_m0.txt ABSOLUTE
    LL_ReadCarrSens                          0x00005edd   Thumb Code     0  bb_rom_sym_m0.txt ABSOLUTE
    LL_ReadChanMap                           0x00005ef9   Thumb Code     0  bb_rom_sym_m0.txt ABSOLUTE
    LL_ReadFoff                              0x00005f31   Thumb Code     0  bb_rom_sym_m0.txt ABSOLUTE
    LL_ReadLocalSupportedFeatures            0x00005f71   Thumb Code     0  bb_rom_sym_m0.txt ABSOLUTE
    LL_ReadLocalVersionInfo                  0x00005f8d   Thumb Code     0  bb_rom_sym_m0.txt ABSOLUTE
    LL_ReadMaximumAdvDataLength              0x00005fa5   Thumb Code     0  bb_rom_sym_m0.txt ABSOLUTE
    LL_ReadNumberOfSupportAdvSet             0x00005fc5   Thumb Code     0  bb_rom_sym_m0.txt ABSOLUTE
    LL_ReadRemoteUsedFeatures                0x00006021   Thumb Code     0  bb_rom_sym_m0.txt ABSOLUTE
    LL_ReadRemoteUsedFeaturesCompleteCback   0x00006061   Thumb Code     0  bb_rom_sym_m0.txt ABSOLUTE
    LL_ReadRemoteVersionInfo                 0x000060d5   Thumb Code     0  bb_rom_sym_m0.txt ABSOLUTE
    LL_ReadRemoteVersionInfoCback            0x00006131   Thumb Code     0  bb_rom_sym_m0.txt ABSOLUTE
    LL_ReadResolvingListSize                 0x000061a9   Thumb Code     0  bb_rom_sym_m0.txt ABSOLUTE
    LL_ReadRssi                              0x000061b1   Thumb Code     0  bb_rom_sym_m0.txt ABSOLUTE
    LL_ReadSupportedStates                   0x000061e5   Thumb Code     0  bb_rom_sym_m0.txt ABSOLUTE
    LL_ReadTxPowerLevel                      0x00006269   Thumb Code     0  bb_rom_sym_m0.txt ABSOLUTE
    LL_ReadWlSize                            0x000062e5   Thumb Code     0  bb_rom_sym_m0.txt ABSOLUTE
    LL_RemoveAdvSet                          0x00006335   Thumb Code     0  bb_rom_sym_m0.txt ABSOLUTE
    LL_RemoveResolvingListDevice             0x000064a5   Thumb Code     0  bb_rom_sym_m0.txt ABSOLUTE
    LL_RemoveWhiteListDevice                 0x00006561   Thumb Code     0  bb_rom_sym_m0.txt ABSOLUTE
    LL_Reset                                 0x000065f1   Thumb Code     0  bb_rom_sym_m0.txt ABSOLUTE
    LL_RxDataCompleteCback                   0x00006791   Thumb Code     0  bb_rom_sym_m0.txt ABSOLUTE
    LL_SetAddressResolutionEnable            0x00006831   Thumb Code     0  bb_rom_sym_m0.txt ABSOLUTE
    LL_SetAdvControl                         0x00006881   Thumb Code     0  bb_rom_sym_m0.txt ABSOLUTE
    LL_SetAdvControl0                        0x00006899   Thumb Code     0  bb_rom_sym_m0.txt ABSOLUTE
    LL_SetAdvData                            0x00006a05   Thumb Code     0  bb_rom_sym_m0.txt ABSOLUTE
    LL_SetAdvParam                           0x00006a6d   Thumb Code     0  bb_rom_sym_m0.txt ABSOLUTE
    LL_SetAdvParam0                          0x00006a9d   Thumb Code     0  bb_rom_sym_m0.txt ABSOLUTE
    LL_SetDataLengh                          0x00006df9   Thumb Code     0  bb_rom_sym_m0.txt ABSOLUTE
    LL_SetDataLengh0                         0x00006e11   Thumb Code     0  bb_rom_sym_m0.txt ABSOLUTE
    LL_SetDefaultPhyMode                     0x00006ead   Thumb Code     0  bb_rom_sym_m0.txt ABSOLUTE
    LL_SetExtAdvData                         0x00006edd   Thumb Code     0  bb_rom_sym_m0.txt ABSOLUTE
    LL_SetExtAdvEnable                       0x00006fc5   Thumb Code     0  bb_rom_sym_m0.txt ABSOLUTE
    LL_SetExtAdvParam                        0x00007205   Thumb Code     0  bb_rom_sym_m0.txt ABSOLUTE
    LL_SetExtAdvSetRandomAddress             0x000073a9   Thumb Code     0  bb_rom_sym_m0.txt ABSOLUTE
    LL_SetExtScanRspData                     0x000073f5   Thumb Code     0  bb_rom_sym_m0.txt ABSOLUTE
    LL_SetExtendedScanEnable                 0x00007471   Thumb Code     0  bb_rom_sym_m0.txt ABSOLUTE
    LL_SetExtendedScanParameters             0x000074b5   Thumb Code     0  bb_rom_sym_m0.txt ABSOLUTE
    LL_SetPeriodicAdvData                    0x0000751d   Thumb Code     0  bb_rom_sym_m0.txt ABSOLUTE
    LL_SetPeriodicAdvEnable                  0x000075cd   Thumb Code     0  bb_rom_sym_m0.txt ABSOLUTE
    LL_SetPeriodicAdvParameter               0x00007715   Thumb Code     0  bb_rom_sym_m0.txt ABSOLUTE
    LL_SetPhyMode                            0x000077e1   Thumb Code     0  bb_rom_sym_m0.txt ABSOLUTE
    LL_SetPhyMode0                           0x000077fd   Thumb Code     0  bb_rom_sym_m0.txt ABSOLUTE
    LL_SetRandomAddress                      0x000078c9   Thumb Code     0  bb_rom_sym_m0.txt ABSOLUTE
    LL_SetResolvablePrivateAddressTimeout    0x00007929   Thumb Code     0  bb_rom_sym_m0.txt ABSOLUTE
    LL_SetScanControl                        0x00007935   Thumb Code     0  bb_rom_sym_m0.txt ABSOLUTE
    LL_SetScanControl0                       0x0000794d   Thumb Code     0  bb_rom_sym_m0.txt ABSOLUTE
    LL_SetScanParam                          0x00007a59   Thumb Code     0  bb_rom_sym_m0.txt ABSOLUTE
    LL_SetScanParam0                         0x00007a75   Thumb Code     0  bb_rom_sym_m0.txt ABSOLUTE
    LL_SetScanRspData                        0x00007b15   Thumb Code     0  bb_rom_sym_m0.txt ABSOLUTE
    LL_SetTxPowerLevel                       0x00007b65   Thumb Code     0  bb_rom_sym_m0.txt ABSOLUTE
    LL_Set_ConnectionCTE_ReceiveParam        0x00007b91   Thumb Code     0  bb_rom_sym_m0.txt ABSOLUTE
    LL_Set_ConnectionCTE_TransmitParam       0x00007c99   Thumb Code     0  bb_rom_sym_m0.txt ABSOLUTE
    LL_StartEncrypt                          0x00007e01   Thumb Code     0  bb_rom_sym_m0.txt ABSOLUTE
    LL_TX_bm_alloc                           0x00007f01   Thumb Code     0  bb_rom_sym_m0.txt ABSOLUTE
    LL_TxData                                0x00007f1d   Thumb Code     0  bb_rom_sym_m0.txt ABSOLUTE
    LL_WriteSuggestedDefaultDataLength       0x00007fb9   Thumb Code     0  bb_rom_sym_m0.txt ABSOLUTE
    LL_evt_schedule                          0x00007ff9   Thumb Code     0  bb_rom_sym_m0.txt ABSOLUTE
    LL_extAdvTimerExpProcess                 0x000080b5   Thumb Code     0  bb_rom_sym_m0.txt ABSOLUTE
    LL_extInitTimerExpProcess                0x000080b9   Thumb Code     0  bb_rom_sym_m0.txt ABSOLUTE
    LL_extScanTimerExpProcess                0x000080bb   Thumb Code     0  bb_rom_sym_m0.txt ABSOLUTE
    LL_master_conn_event                     0x000080bd   Thumb Code     0  bb_rom_sym_m0.txt ABSOLUTE
    LL_prdAdvTimerExpProcess                 0x0000826d   Thumb Code     0  bb_rom_sym_m0.txt ABSOLUTE
    LL_prdScanTimerExpProcess                0x00008271   Thumb Code     0  bb_rom_sym_m0.txt ABSOLUTE
    LL_set_default_conn_params               0x00008275   Thumb Code     0  bb_rom_sym_m0.txt ABSOLUTE
    LL_set_default_conn_params0              0x0000828d   Thumb Code     0  bb_rom_sym_m0.txt ABSOLUTE
    LL_slave_conn_event                      0x000082b9   Thumb Code     0  bb_rom_sym_m0.txt ABSOLUTE
    NMI_Handler                              0x00008481   Thumb Code     0  bb_rom_sym_m0.txt ABSOLUTE
    PendSV_Handler                           0x000084cd   Thumb Code     0  bb_rom_sym_m0.txt ABSOLUTE
    TIM1_IRQHandler                          0x00008545   Thumb Code     0  bb_rom_sym_m0.txt ABSOLUTE
    WaitRTCCount                             0x00008901   Thumb Code     0  bb_rom_sym_m0.txt ABSOLUTE
    __ARM_common_switch8                     0x00008961   Thumb Code     0  bb_rom_sym_m0.txt ABSOLUTE
    _spif_read_status_reg                    0x0000961d   Thumb Code     0  bb_rom_sym_m0.txt ABSOLUTE
    _spif_wait_nobusy                        0x00009645   Thumb Code     0  bb_rom_sym_m0.txt ABSOLUTE
    app_sleep_process                        0x00009769   Thumb Code     0  bb_rom_sym_m0.txt ABSOLUTE
    app_wakeup_process                       0x00009779   Thumb Code     0  bb_rom_sym_m0.txt ABSOLUTE
    ate_fun_test                             0x00009789   Thumb Code     0  bb_rom_sym_m0.txt ABSOLUTE
    ate_sleep_process                        0x00009d11   Thumb Code     0  bb_rom_sym_m0.txt ABSOLUTE
    ate_wakeup_process                       0x0000a121   Thumb Code     0  bb_rom_sym_m0.txt ABSOLUTE
    bit_to_byte                              0x0000a1e9   Thumb Code     0  bb_rom_sym_m0.txt ABSOLUTE
    ble_crc24_gen                            0x0000a201   Thumb Code     0  bb_rom_sym_m0.txt ABSOLUTE
    boot_init                                0x0000a361   Thumb Code     0  bb_rom_sym_m0.txt ABSOLUTE
    boot_init0                               0x0000a379   Thumb Code     0  bb_rom_sym_m0.txt ABSOLUTE
    boot_m0                                  0x0000a3c1   Thumb Code     0  bb_rom_sym_m0.txt ABSOLUTE
    byte_to_bit                              0x0000a535   Thumb Code     0  bb_rom_sym_m0.txt ABSOLUTE
    calculate_whiten_seed                    0x0000a549   Thumb Code     0  bb_rom_sym_m0.txt ABSOLUTE
    clear_timer                              0x0000a5c1   Thumb Code     0  bb_rom_sym_m0.txt ABSOLUTE
    clear_timer_int                          0x0000a5cb   Thumb Code     0  bb_rom_sym_m0.txt ABSOLUTE
    clk_get_pclk                             0x0000a5d1   Thumb Code     0  bb_rom_sym_m0.txt ABSOLUTE
    clk_init                                 0x0000a5ed   Thumb Code     0  bb_rom_sym_m0.txt ABSOLUTE
    clk_set_pclk_div                         0x0000a681   Thumb Code     0  bb_rom_sym_m0.txt ABSOLUTE
    clk_spif_ref_clk                         0x0000a6a1   Thumb Code     0  bb_rom_sym_m0.txt ABSOLUTE
    config_RTC                               0x0000a6f9   Thumb Code     0  bb_rom_sym_m0.txt ABSOLUTE
    config_RTC0                              0x0000a711   Thumb Code     0  bb_rom_sym_m0.txt ABSOLUTE
    rom_crc16                                0x0000a755   Thumb Code     0  bb_rom_sym_m0.txt ABSOLUTE
    debug_print                              0x0000a791   Thumb Code     0  bb_rom_sym_m0.txt ABSOLUTE
    disableSleep                             0x0000a921   Thumb Code     0  bb_rom_sym_m0.txt ABSOLUTE
    drv_disable_irq                          0x0000a975   Thumb Code     0  bb_rom_sym_m0.txt ABSOLUTE
    drv_enable_irq                           0x0000a99d   Thumb Code     0  bb_rom_sym_m0.txt ABSOLUTE
    drv_irq_init                             0x0000a9c9   Thumb Code     0  bb_rom_sym_m0.txt ABSOLUTE
    dwc_connect                              0x0000a9fd   Thumb Code     0  bb_rom_sym_m0.txt ABSOLUTE
    dwc_data_process                         0x0000aa35   Thumb Code     0  bb_rom_sym_m0.txt ABSOLUTE
    dwc_loop                                 0x0000abd1   Thumb Code     0  bb_rom_sym_m0.txt ABSOLUTE
    efuse_read                               0x0000ace1   Thumb Code     0  bb_rom_sym_m0.txt ABSOLUTE
    enableSleep                              0x0000aead   Thumb Code     0  bb_rom_sym_m0.txt ABSOLUTE
    enterSleepProcess                        0x0000aeb9   Thumb Code     0  bb_rom_sym_m0.txt ABSOLUTE
    enterSleepProcess0                       0x0000aed1   Thumb Code     0  bb_rom_sym_m0.txt ABSOLUTE
    enter_sleep_off_mode                     0x0000afa1   Thumb Code     0  bb_rom_sym_m0.txt ABSOLUTE
    enter_sleep_off_mode0                    0x0000afb9   Thumb Code     0  bb_rom_sym_m0.txt ABSOLUTE
    getMcuPrecisionCount                     0x0000afe9   Thumb Code     0  bb_rom_sym_m0.txt ABSOLUTE
    getPN23RandNumber                        0x0000aff5   Thumb Code     0  bb_rom_sym_m0.txt ABSOLUTE
    getRxBufferFree                          0x0000b01d   Thumb Code     0  bb_rom_sym_m0.txt ABSOLUTE
    getRxBufferSize                          0x0000b031   Thumb Code     0  bb_rom_sym_m0.txt ABSOLUTE
    getSleepMode                             0x0000b051   Thumb Code     0  bb_rom_sym_m0.txt ABSOLUTE
    getTxBufferFree                          0x0000b05d   Thumb Code     0  bb_rom_sym_m0.txt ABSOLUTE
    getTxBufferSize                          0x0000b071   Thumb Code     0  bb_rom_sym_m0.txt ABSOLUTE
    get_rx_read_ptr                          0x0000b0b1   Thumb Code     0  bb_rom_sym_m0.txt ABSOLUTE
    get_rx_write_ptr                         0x0000b0b9   Thumb Code     0  bb_rom_sym_m0.txt ABSOLUTE
    get_sleep_flag                           0x0000b0c1   Thumb Code     0  bb_rom_sym_m0.txt ABSOLUTE
    get_timer_count                          0x0000b0cd   Thumb Code     0  bb_rom_sym_m0.txt ABSOLUTE
    get_timer_int                            0x0000b0d1   Thumb Code     0  bb_rom_sym_m0.txt ABSOLUTE
    get_tx_read_ptr                          0x0000b0d9   Thumb Code     0  bb_rom_sym_m0.txt ABSOLUTE
    get_tx_write_ptr                         0x0000b0e1   Thumb Code     0  bb_rom_sym_m0.txt ABSOLUTE
    gpio_cfg_analog_io                       0x0000b0e9   Thumb Code     0  bb_rom_sym_m0.txt ABSOLUTE
    gpio_dir                                 0x0000b119   Thumb Code     0  bb_rom_sym_m0.txt ABSOLUTE
    gpio_fmux_control                        0x0000b15d   Thumb Code     0  bb_rom_sym_m0.txt ABSOLUTE
    gpio_fmux_set                            0x0000b179   Thumb Code     0  bb_rom_sym_m0.txt ABSOLUTE
    gpio_in_trigger                          0x0000b1b1   Thumb Code     0  bb_rom_sym_m0.txt ABSOLUTE
    gpio_init                                0x0000b219   Thumb Code     0  bb_rom_sym_m0.txt ABSOLUTE
    gpio_interrupt_set                       0x0000b22d   Thumb Code     0  bb_rom_sym_m0.txt ABSOLUTE
    gpio_pull_set                            0x0000b249   Thumb Code     0  bb_rom_sym_m0.txt ABSOLUTE
    gpio_read                                0x0000b291   Thumb Code     0  bb_rom_sym_m0.txt ABSOLUTE
    gpio_wakeup_set                          0x0000b2b5   Thumb Code     0  bb_rom_sym_m0.txt ABSOLUTE
    gpio_write                               0x0000b319   Thumb Code     0  bb_rom_sym_m0.txt ABSOLUTE
    hciInitEventMasks                        0x0000b52d   Thumb Code     0  bb_rom_sym_m0.txt ABSOLUTE
    isSleepAllow                             0x0000b555   Thumb Code     0  bb_rom_sym_m0.txt ABSOLUTE
    isTimer1Running                          0x0000b561   Thumb Code     0  bb_rom_sym_m0.txt ABSOLUTE
    isTimer4Running                          0x0000b571   Thumb Code     0  bb_rom_sym_m0.txt ABSOLUTE
    jump_area_init                           0x0000b581   Thumb Code     0  bb_rom_sym_m0.txt ABSOLUTE
    ll24BitTimeCompare                       0x0000b5a9   Thumb Code     0  bb_rom_sym_m0.txt ABSOLUTE
    llAdjSlaveLatencyValue                   0x0000b609   Thumb Code     0  bb_rom_sym_m0.txt ABSOLUTE
    llAllocConnId                            0x0000b629   Thumb Code     0  bb_rom_sym_m0.txt ABSOLUTE
    llAllocateSyncHandle                     0x0000b679   Thumb Code     0  bb_rom_sym_m0.txt ABSOLUTE
    llAtLeastTwoChans                        0x0000b6a9   Thumb Code     0  bb_rom_sym_m0.txt ABSOLUTE
    llCalcMaxScanTime                        0x0000b6ed   Thumb Code     0  bb_rom_sym_m0.txt ABSOLUTE
    llCalcScaFactor                          0x0000b745   Thumb Code     0  bb_rom_sym_m0.txt ABSOLUTE
    llCalcTimerDrift                         0x0000b76d   Thumb Code     0  bb_rom_sym_m0.txt ABSOLUTE
    llCheckForLstoDuringSL                   0x0000b7b1   Thumb Code     0  bb_rom_sym_m0.txt ABSOLUTE
    llCheckWhiteListUsage                    0x0000b7ed   Thumb Code     0  bb_rom_sym_m0.txt ABSOLUTE
    llConnCleanup                            0x0000b809   Thumb Code     0  bb_rom_sym_m0.txt ABSOLUTE
    llConnTerminate                          0x0000b839   Thumb Code     0  bb_rom_sym_m0.txt ABSOLUTE
    llConnTerminate0                         0x0000b851   Thumb Code     0  bb_rom_sym_m0.txt ABSOLUTE
    llConvertCtrlProcTimeoutToEvent          0x0000b87d   Thumb Code     0  bb_rom_sym_m0.txt ABSOLUTE
    llConvertLstoToEvent                     0x0000b899   Thumb Code     0  bb_rom_sym_m0.txt ABSOLUTE
    llDeleteSyncHandle                       0x0000b8bd   Thumb Code     0  bb_rom_sym_m0.txt ABSOLUTE
    llDequeueCtrlPkt                         0x0000b8ed   Thumb Code     0  bb_rom_sym_m0.txt ABSOLUTE
    llDequeueDataQ                           0x0000b929   Thumb Code     0  bb_rom_sym_m0.txt ABSOLUTE
    llEnqueueCtrlPkt                         0x0000b953   Thumb Code     0  bb_rom_sym_m0.txt ABSOLUTE
    llEnqueueDataQ                           0x0000b98b   Thumb Code     0  bb_rom_sym_m0.txt ABSOLUTE
    llEqAlreadyValidAddr                     0x0000b9b1   Thumb Code     0  bb_rom_sym_m0.txt ABSOLUTE
    llEqSynchWord                            0x0000b9b5   Thumb Code     0  bb_rom_sym_m0.txt ABSOLUTE
    llEqualBytes                             0x0000b9c9   Thumb Code     0  bb_rom_sym_m0.txt ABSOLUTE
    llEventDelta                             0x0000b9e9   Thumb Code     0  bb_rom_sym_m0.txt ABSOLUTE
    llEventInRange                           0x0000b9fd   Thumb Code     0  bb_rom_sym_m0.txt ABSOLUTE
    llGenerateCRC                            0x0000ba1b   Thumb Code     0  bb_rom_sym_m0.txt ABSOLUTE
    llGenerateValidAccessAddr                0x0000ba3d   Thumb Code     0  bb_rom_sym_m0.txt ABSOLUTE
    llGetNextAdvChn                          0x0000ba6d   Thumb Code     0  bb_rom_sym_m0.txt ABSOLUTE
    llGetNextAuxAdvChn                       0x0000bac1   Thumb Code     0  bb_rom_sym_m0.txt ABSOLUTE
    llGetNextDataChan                        0x0000bae5   Thumb Code     0  bb_rom_sym_m0.txt ABSOLUTE
    llGetNextDataChanCSA2                    0x0000bb23   Thumb Code     0  bb_rom_sym_m0.txt ABSOLUTE
    llGtSixConsecZerosOrOnes                 0x0000bb81   Thumb Code     0  bb_rom_sym_m0.txt ABSOLUTE
    llGtTwentyFourTransitions                0x0000bbb3   Thumb Code     0  bb_rom_sym_m0.txt ABSOLUTE
    llInitFeatureSet                         0x0000bbe5   Thumb Code     0  bb_rom_sym_m0.txt ABSOLUTE
    llInitFeatureSet2MPHY                    0x0000bc1d   Thumb Code     0  bb_rom_sym_m0.txt ABSOLUTE
    llInitFeatureSetCodedPHY                 0x0000bc45   Thumb Code     0  bb_rom_sym_m0.txt ABSOLUTE
    llInitFeatureSetDLE                      0x0000bc6d   Thumb Code     0  bb_rom_sym_m0.txt ABSOLUTE
    llLtTwoChangesInLastSixBits              0x0000bc89   Thumb Code     0  bb_rom_sym_m0.txt ABSOLUTE
    llMasterEvt_TaskEndOk                    0x0000bcb9   Thumb Code     0  bb_rom_sym_m0.txt ABSOLUTE
    llMemCopyDst                             0x0000be05   Thumb Code     0  bb_rom_sym_m0.txt ABSOLUTE
    llMemCopySrc                             0x0000be1b   Thumb Code     0  bb_rom_sym_m0.txt ABSOLUTE
    llOneBitSynchWordDiffer                  0x0000be35   Thumb Code     0  bb_rom_sym_m0.txt ABSOLUTE
    llPduLengthManagmentReset                0x0000be4d   Thumb Code     0  bb_rom_sym_m0.txt ABSOLUTE
    llPduLengthUpdate                        0x0000bf01   Thumb Code     0  bb_rom_sym_m0.txt ABSOLUTE
    llPendingUpdateParam                     0x0000c00d   Thumb Code     0  bb_rom_sym_m0.txt ABSOLUTE
    llPhyModeCtrlReset                       0x0000c051   Thumb Code     0  bb_rom_sym_m0.txt ABSOLUTE
    llPhyModeCtrlUpdateNotify                0x0000c0b9   Thumb Code     0  bb_rom_sym_m0.txt ABSOLUTE
    llProcessChanMap                         0x0000c185   Thumb Code     0  bb_rom_sym_m0.txt ABSOLUTE
    llProcessMasterControlPacket             0x0000c1d1   Thumb Code     0  bb_rom_sym_m0.txt ABSOLUTE
    llProcessMasterControlProcedures         0x0000c5b9   Thumb Code     0  bb_rom_sym_m0.txt ABSOLUTE
    llProcessRxData                          0x0000ca85   Thumb Code     0  bb_rom_sym_m0.txt ABSOLUTE
    llProcessSlaveControlPacket              0x0000cc31   Thumb Code     0  bb_rom_sym_m0.txt ABSOLUTE
    llProcessSlaveControlProcedures          0x0000d169   Thumb Code     0  bb_rom_sym_m0.txt ABSOLUTE
    llProcessTxData                          0x0000d4d1   Thumb Code     0  bb_rom_sym_m0.txt ABSOLUTE
    llProcessTxData0                         0x0000d4e9   Thumb Code     0  bb_rom_sym_m0.txt ABSOLUTE
    llReleaseAllConnId                       0x0000d55d   Thumb Code     0  bb_rom_sym_m0.txt ABSOLUTE
    llReleaseConnId                          0x0000d561   Thumb Code     0  bb_rom_sym_m0.txt ABSOLUTE
    llReplaceCtrlPkt                         0x0000d5f5   Thumb Code     0  bb_rom_sym_m0.txt ABSOLUTE
    llResetConnId                            0x0000d60d   Thumb Code     0  bb_rom_sym_m0.txt ABSOLUTE
    llResetRfCounters                        0x0000d6ed   Thumb Code     0  bb_rom_sym_m0.txt ABSOLUTE
    llSecAdvAllow                            0x0000d701   Thumb Code     0  bb_rom_sym_m0.txt ABSOLUTE
    llSetNextDataChan                        0x0000d769   Thumb Code     0  bb_rom_sym_m0.txt ABSOLUTE
    llSetNextPhyMode                         0x0000d839   Thumb Code     0  bb_rom_sym_m0.txt ABSOLUTE
    llSetupAdv                               0x0000d8a9   Thumb Code     0  bb_rom_sym_m0.txt ABSOLUTE
    llSetupAdvExtIndPDU                      0x0000d949   Thumb Code     0  bb_rom_sym_m0.txt ABSOLUTE
    llSetupAuxAdvIndPDU                      0x0000db4d   Thumb Code     0  bb_rom_sym_m0.txt ABSOLUTE
    llSetupAuxChainIndPDU                    0x0000dda1   Thumb Code     0  bb_rom_sym_m0.txt ABSOLUTE
    llSetupAuxConnectReqPDU                  0x0000df91   Thumb Code     0  bb_rom_sym_m0.txt ABSOLUTE
    llSetupAuxConnectRspPDU                  0x0000e025   Thumb Code     0  bb_rom_sym_m0.txt ABSOLUTE
    llSetupAuxScanRspPDU                     0x0000e09d   Thumb Code     0  bb_rom_sym_m0.txt ABSOLUTE
    llSetupAuxSyncIndPDU                     0x0000e109   Thumb Code     0  bb_rom_sym_m0.txt ABSOLUTE
    llSetupCTEReq                            0x0000e2c1   Thumb Code     0  bb_rom_sym_m0.txt ABSOLUTE
    llSetupCTERsp                            0x0000e38d   Thumb Code     0  bb_rom_sym_m0.txt ABSOLUTE
    llSetupConn                              0x0000e457   Thumb Code     0  bb_rom_sym_m0.txt ABSOLUTE
    llSetupDataLenghtReq                     0x0000e459   Thumb Code     0  bb_rom_sym_m0.txt ABSOLUTE
    llSetupDataLenghtRsp                     0x0000e4d5   Thumb Code     0  bb_rom_sym_m0.txt ABSOLUTE
    llSetupDirectedAdvEvt                    0x0000e551   Thumb Code     0  bb_rom_sym_m0.txt ABSOLUTE
    llSetupEncReq                            0x0000e6a1   Thumb Code     0  bb_rom_sym_m0.txt ABSOLUTE
    llSetupEncRsp                            0x0000e725   Thumb Code     0  bb_rom_sym_m0.txt ABSOLUTE
    llSetupExtAdvEvent                       0x0000e7b1   Thumb Code     0  bb_rom_sym_m0.txt ABSOLUTE
    llSetupExtInit                           0x0000eb09   Thumb Code     0  bb_rom_sym_m0.txt ABSOLUTE
    llSetupExtScan                           0x0000eb81   Thumb Code     0  bb_rom_sym_m0.txt ABSOLUTE
    llSetupFeatureSetReq                     0x0000ec01   Thumb Code     0  bb_rom_sym_m0.txt ABSOLUTE
    llSetupFeatureSetRsp                     0x0000ec63   Thumb Code     0  bb_rom_sym_m0.txt ABSOLUTE
    llSetupInit                              0x0000ecc1   Thumb Code     0  bb_rom_sym_m0.txt ABSOLUTE
    llSetupNextMasterEvent                   0x0000ed39   Thumb Code     0  bb_rom_sym_m0.txt ABSOLUTE
    llSetupNextSlaveEvent                    0x0000ede1   Thumb Code     0  bb_rom_sym_m0.txt ABSOLUTE
    llSetupNextSlaveEvent0                   0x0000edf9   Thumb Code     0  bb_rom_sym_m0.txt ABSOLUTE
    llSetupNonConnectableAdvEvt              0x0000ef65   Thumb Code     0  bb_rom_sym_m0.txt ABSOLUTE
    llSetupPauseEncReq                       0x0000f075   Thumb Code     0  bb_rom_sym_m0.txt ABSOLUTE
    llSetupPauseEncRsp                       0x0000f0c5   Thumb Code     0  bb_rom_sym_m0.txt ABSOLUTE
    llSetupPhyReq                            0x0000f121   Thumb Code     0  bb_rom_sym_m0.txt ABSOLUTE
    llSetupPhyRsp                            0x0000f177   Thumb Code     0  bb_rom_sym_m0.txt ABSOLUTE
    llSetupPhyUpdateInd                      0x0000f1cd   Thumb Code     0  bb_rom_sym_m0.txt ABSOLUTE
    llSetupPrdAdvEvent                       0x0000f239   Thumb Code     0  bb_rom_sym_m0.txt ABSOLUTE
    llSetupPrdScan                           0x0000f3b9   Thumb Code     0  bb_rom_sym_m0.txt ABSOLUTE
    llSetupRejectExtInd                      0x0000f44d   Thumb Code     0  bb_rom_sym_m0.txt ABSOLUTE
    llSetupRejectInd                         0x0000f479   Thumb Code     0  bb_rom_sym_m0.txt ABSOLUTE
    llSetupScan                              0x0000f4a5   Thumb Code     0  bb_rom_sym_m0.txt ABSOLUTE
    llSetupScanInit                          0x0000f54d   Thumb Code     0  bb_rom_sym_m0.txt ABSOLUTE
    llSetupScannableAdvEvt                   0x0000f55d   Thumb Code     0  bb_rom_sym_m0.txt ABSOLUTE
    llSetupSecAdvEvt                         0x0000f66d   Thumb Code     0  bb_rom_sym_m0.txt ABSOLUTE
    llSetupSecConnectableAdvEvt              0x0000f6e9   Thumb Code     0  bb_rom_sym_m0.txt ABSOLUTE
    llSetupSecInit                           0x0000f7c1   Thumb Code     0  bb_rom_sym_m0.txt ABSOLUTE
    llSetupSecNonConnectableAdvEvt           0x0000f875   Thumb Code     0  bb_rom_sym_m0.txt ABSOLUTE
    llSetupSecScan                           0x0000f94d   Thumb Code     0  bb_rom_sym_m0.txt ABSOLUTE
    llSetupSecScannableAdvEvt                0x0000fa19   Thumb Code     0  bb_rom_sym_m0.txt ABSOLUTE
    llSetupStartEncReq                       0x0000faf1   Thumb Code     0  bb_rom_sym_m0.txt ABSOLUTE
    llSetupSyncInfo                          0x0000fb59   Thumb Code     0  bb_rom_sym_m0.txt ABSOLUTE
    llSetupTermInd                           0x0000fc2d   Thumb Code     0  bb_rom_sym_m0.txt ABSOLUTE
    llSetupUndirectedAdvEvt                  0x0000fc91   Thumb Code     0  bb_rom_sym_m0.txt ABSOLUTE
    llSetupUnknownRsp                        0x0000fda5   Thumb Code     0  bb_rom_sym_m0.txt ABSOLUTE
    llSetupUpdateChanReq                     0x0000fdf9   Thumb Code     0  bb_rom_sym_m0.txt ABSOLUTE
    llSetupUpdateParamReq                    0x0000fe6d   Thumb Code     0  bb_rom_sym_m0.txt ABSOLUTE
    llSetupVersionIndReq                     0x0000ff05   Thumb Code     0  bb_rom_sym_m0.txt ABSOLUTE
    llSlaveEvt_TaskAbort                     0x0000ff79   Thumb Code     0  bb_rom_sym_m0.txt ABSOLUTE
    llSlaveEvt_TaskEndOk                     0x0000ff95   Thumb Code     0  bb_rom_sym_m0.txt ABSOLUTE
    llTrxNumAdaptiveConfig                   0x00010181   Thumb Code     0  bb_rom_sym_m0.txt ABSOLUTE
    llValidAccessAddr                        0x0001019b   Thumb Code     0  bb_rom_sym_m0.txt ABSOLUTE
    llWaitUs                                 0x000101e1   Thumb Code     0  bb_rom_sym_m0.txt ABSOLUTE
    llWriteTxData                            0x00010209   Thumb Code     0  bb_rom_sym_m0.txt ABSOLUTE
    ll_CalcRandomAddr                        0x0001028f   Thumb Code     0  bb_rom_sym_m0.txt ABSOLUTE
    ll_ResolveRandomAddrs                    0x000102cd   Thumb Code     0  bb_rom_sym_m0.txt ABSOLUTE
    ll_addTask                               0x00010315   Thumb Code     0  bb_rom_sym_m0.txt ABSOLUTE
    ll_add_adv_task                          0x00010445   Thumb Code     0  bb_rom_sym_m0.txt ABSOLUTE
    ll_add_adv_task_periodic                 0x00010461   Thumb Code     0  bb_rom_sym_m0.txt ABSOLUTE
    ll_adptive_adj_next_time                 0x0001047d   Thumb Code     0  bb_rom_sym_m0.txt ABSOLUTE
    ll_adptive_smart_window                  0x000104fd   Thumb Code     0  bb_rom_sym_m0.txt ABSOLUTE
    ll_adv_scheduler                         0x000105ad   Thumb Code     0  bb_rom_sym_m0.txt ABSOLUTE
    ll_adv_scheduler_periodic                0x000105c9   Thumb Code     0  bb_rom_sym_m0.txt ABSOLUTE
    ll_allocAuxAdvTimeSlot                   0x000105e5   Thumb Code     0  bb_rom_sym_m0.txt ABSOLUTE
    ll_allocAuxAdvTimeSlot_prd               0x00010679   Thumb Code     0  bb_rom_sym_m0.txt ABSOLUTE
    ll_debug_output                          0x00010719   Thumb Code     0  bb_rom_sym_m0.txt ABSOLUTE
    ll_deleteTask                            0x00010731   Thumb Code     0  bb_rom_sym_m0.txt ABSOLUTE
    ll_delete_adv_task                       0x00010765   Thumb Code     0  bb_rom_sym_m0.txt ABSOLUTE
    ll_delete_adv_task_periodic              0x00010781   Thumb Code     0  bb_rom_sym_m0.txt ABSOLUTE
    ll_ext_adv_schedule_next_event           0x0001079d   Thumb Code     0  bb_rom_sym_m0.txt ABSOLUTE
    ll_ext_init_schedule_next_event          0x000107c1   Thumb Code     0  bb_rom_sym_m0.txt ABSOLUTE
    ll_ext_scan_schedule_next_event          0x000107dd   Thumb Code     0  bb_rom_sym_m0.txt ABSOLUTE
    ll_generateExtAdvDid                     0x000107f9   Thumb Code     0  bb_rom_sym_m0.txt ABSOLUTE
    ll_generateTxBuffer                      0x00010801   Thumb Code     0  bb_rom_sym_m0.txt ABSOLUTE
    ll_getFirstAdvChn                        0x000109c1   Thumb Code     0  bb_rom_sym_m0.txt ABSOLUTE
    ll_getRPAListEntry                       0x000109cd   Thumb Code     0  bb_rom_sym_m0.txt ABSOLUTE
    ll_get_next_active_conn                  0x00010a39   Thumb Code     0  bb_rom_sym_m0.txt ABSOLUTE
    ll_get_next_timer                        0x00010aa1   Thumb Code     0  bb_rom_sym_m0.txt ABSOLUTE
    ll_hw_clr_irq                            0x00010add   Thumb Code     0  bb_rom_sym_m0.txt ABSOLUTE
    ll_hw_config                             0x00010aed   Thumb Code     0  bb_rom_sym_m0.txt ABSOLUTE
    ll_hw_get_anchor                         0x00010b6d   Thumb Code     0  bb_rom_sym_m0.txt ABSOLUTE
    ll_hw_get_fsm_status                     0x00010b79   Thumb Code     0  bb_rom_sym_m0.txt ABSOLUTE
    ll_hw_get_iq_RawSample                   0x00010b89   Thumb Code     0  bb_rom_sym_m0.txt ABSOLUTE
    ll_hw_get_irq_status                     0x00010bbd   Thumb Code     0  bb_rom_sym_m0.txt ABSOLUTE
    ll_hw_get_last_ack                       0x00010bcd   Thumb Code     0  bb_rom_sym_m0.txt ABSOLUTE
    ll_hw_get_loop_cycle                     0x00010be9   Thumb Code     0  bb_rom_sym_m0.txt ABSOLUTE
    ll_hw_get_loop_time                      0x00010bf5   Thumb Code     0  bb_rom_sym_m0.txt ABSOLUTE
    ll_hw_get_nAck                           0x00010c01   Thumb Code     0  bb_rom_sym_m0.txt ABSOLUTE
    ll_hw_get_rfifo_depth                    0x00010c11   Thumb Code     0  bb_rom_sym_m0.txt ABSOLUTE
    ll_hw_get_rfifo_info                     0x00010c25   Thumb Code     0  bb_rom_sym_m0.txt ABSOLUTE
    ll_hw_get_rxPkt_CrcErr_num               0x00010c45   Thumb Code     0  bb_rom_sym_m0.txt ABSOLUTE
    ll_hw_get_rxPkt_CrcOk_num                0x00010c55   Thumb Code     0  bb_rom_sym_m0.txt ABSOLUTE
    ll_hw_get_rxPkt_Total_num                0x00010c69   Thumb Code     0  bb_rom_sym_m0.txt ABSOLUTE
    ll_hw_get_rxPkt_num                      0x00010c79   Thumb Code     0  bb_rom_sym_m0.txt ABSOLUTE
    ll_hw_get_rxPkt_stats                    0x00010c85   Thumb Code     0  bb_rom_sym_m0.txt ABSOLUTE
    ll_hw_get_snNesn                         0x00010c9d   Thumb Code     0  bb_rom_sym_m0.txt ABSOLUTE
    ll_hw_get_tfifo_info                     0x00010cad   Thumb Code     0  bb_rom_sym_m0.txt ABSOLUTE
    ll_hw_get_tfifo_wrptr                    0x00010ccd   Thumb Code     0  bb_rom_sym_m0.txt ABSOLUTE
    ll_hw_get_tr_mode                        0x00010cdd   Thumb Code     0  bb_rom_sym_m0.txt ABSOLUTE
    ll_hw_get_txAck                          0x00010ced   Thumb Code     0  bb_rom_sym_m0.txt ABSOLUTE
    ll_hw_go                                 0x00010cf9   Thumb Code     0  bb_rom_sym_m0.txt ABSOLUTE
    ll_hw_ign_rfifo                          0x00010df9   Thumb Code     0  bb_rom_sym_m0.txt ABSOLUTE
    ll_hw_process_RTO                        0x00010e05   Thumb Code     0  bb_rom_sym_m0.txt ABSOLUTE
    ll_hw_read_rfifo                         0x00010e6d   Thumb Code     0  bb_rom_sym_m0.txt ABSOLUTE
    ll_hw_read_rfifo_pplus                   0x00010ee9   Thumb Code     0  bb_rom_sym_m0.txt ABSOLUTE
    ll_hw_read_rfifo_zb                      0x00010f51   Thumb Code     0  bb_rom_sym_m0.txt ABSOLUTE
    ll_hw_read_tfifo_packet                  0x00010fad   Thumb Code     0  bb_rom_sym_m0.txt ABSOLUTE
    ll_hw_read_tfifo_rtlp                    0x00010ff5   Thumb Code     0  bb_rom_sym_m0.txt ABSOLUTE
    ll_hw_rst_rfifo                          0x000110b1   Thumb Code     0  bb_rom_sym_m0.txt ABSOLUTE
    ll_hw_rst_tfifo                          0x000110e9   Thumb Code     0  bb_rom_sym_m0.txt ABSOLUTE
    ll_hw_set_ant_pattern                    0x000110f5   Thumb Code     0  bb_rom_sym_m0.txt ABSOLUTE
    ll_hw_set_ant_switch_mode                0x00011101   Thumb Code     0  bb_rom_sym_m0.txt ABSOLUTE
    ll_hw_set_ant_switch_timing              0x00011115   Thumb Code     0  bb_rom_sym_m0.txt ABSOLUTE
    ll_hw_set_crc_fmt                        0x0001112d   Thumb Code     0  bb_rom_sym_m0.txt ABSOLUTE
    ll_hw_set_cte_rxSupp                     0x0001113d   Thumb Code     0  bb_rom_sym_m0.txt ABSOLUTE
    ll_hw_set_cte_txSupp                     0x00011155   Thumb Code     0  bb_rom_sym_m0.txt ABSOLUTE
    ll_hw_set_empty_head                     0x00011169   Thumb Code     0  bb_rom_sym_m0.txt ABSOLUTE
    ll_hw_set_irq                            0x00011175   Thumb Code     0  bb_rom_sym_m0.txt ABSOLUTE
    ll_hw_set_loop_nack_num                  0x00011181   Thumb Code     0  bb_rom_sym_m0.txt ABSOLUTE
    ll_hw_set_loop_timeout                   0x0001118d   Thumb Code     0  bb_rom_sym_m0.txt ABSOLUTE
    ll_hw_set_pplus_pktfmt                   0x000111a1   Thumb Code     0  bb_rom_sym_m0.txt ABSOLUTE
    ll_hw_set_rtlp                           0x000111cd   Thumb Code     0  bb_rom_sym_m0.txt ABSOLUTE
    ll_hw_set_rtlp_1st                       0x0001121d   Thumb Code     0  bb_rom_sym_m0.txt ABSOLUTE
    ll_hw_set_rtx                            0x00011265   Thumb Code     0  bb_rom_sym_m0.txt ABSOLUTE
    ll_hw_set_rx_timeout                     0x00011279   Thumb Code     0  bb_rom_sym_m0.txt ABSOLUTE
    ll_hw_set_rx_timeout_1st                 0x00011285   Thumb Code     0  bb_rom_sym_m0.txt ABSOLUTE
    ll_hw_set_rx_tx_interval                 0x00011291   Thumb Code     0  bb_rom_sym_m0.txt ABSOLUTE
    ll_hw_set_srx                            0x000112a5   Thumb Code     0  bb_rom_sym_m0.txt ABSOLUTE
    ll_hw_set_stx                            0x000112b9   Thumb Code     0  bb_rom_sym_m0.txt ABSOLUTE
    ll_hw_set_tfifo_space                    0x000112cd   Thumb Code     0  bb_rom_sym_m0.txt ABSOLUTE
    ll_hw_set_timing                         0x000112e5   Thumb Code     0  bb_rom_sym_m0.txt ABSOLUTE
    ll_hw_set_trlp                           0x00011381   Thumb Code     0  bb_rom_sym_m0.txt ABSOLUTE
    ll_hw_set_trx                            0x000113c9   Thumb Code     0  bb_rom_sym_m0.txt ABSOLUTE
    ll_hw_set_trx_settle                     0x000113dd   Thumb Code     0  bb_rom_sym_m0.txt ABSOLUTE
    ll_hw_set_tx_rx_interval                 0x000113f1   Thumb Code     0  bb_rom_sym_m0.txt ABSOLUTE
    ll_hw_set_tx_rx_release                  0x00011405   Thumb Code     0  bb_rom_sym_m0.txt ABSOLUTE
    ll_hw_trigger                            0x00011421   Thumb Code     0  bb_rom_sym_m0.txt ABSOLUTE
    ll_hw_trx_settle_config                  0x00011445   Thumb Code     0  bb_rom_sym_m0.txt ABSOLUTE
    ll_hw_tx2rx_timing_config                0x00011489   Thumb Code     0  bb_rom_sym_m0.txt ABSOLUTE
    ll_hw_update                             0x000114dd   Thumb Code     0  bb_rom_sym_m0.txt ABSOLUTE
    ll_hw_update_rtlp_mode                   0x00011539   Thumb Code     0  bb_rom_sym_m0.txt ABSOLUTE
    ll_hw_update_trlp_mode                   0x00011579   Thumb Code     0  bb_rom_sym_m0.txt ABSOLUTE
    ll_hw_write_tfifo                        0x000115c1   Thumb Code     0  bb_rom_sym_m0.txt ABSOLUTE
    ll_isAddrInWhiteList                     0x00011649   Thumb Code     0  bb_rom_sym_m0.txt ABSOLUTE
    ll_isFirstAdvChn                         0x000116a9   Thumb Code     0  bb_rom_sym_m0.txt ABSOLUTE
    ll_isIrkAllZero                          0x000116c7   Thumb Code     0  bb_rom_sym_m0.txt ABSOLUTE
    ll_isLegacyAdv                           0x000116dd   Thumb Code     0  bb_rom_sym_m0.txt ABSOLUTE
    ll_parseExtHeader                        0x000116ed   Thumb Code     0  bb_rom_sym_m0.txt ABSOLUTE
    ll_prd_adv_schedule_next_event           0x000117a9   Thumb Code     0  bb_rom_sym_m0.txt ABSOLUTE
    ll_prd_scan_schedule_next_event          0x000117cd   Thumb Code     0  bb_rom_sym_m0.txt ABSOLUTE
    ll_processBasicIRQ                       0x000117e9   Thumb Code     0  bb_rom_sym_m0.txt ABSOLUTE
    ll_processExtAdvIRQ                      0x00013401   Thumb Code     0  bb_rom_sym_m0.txt ABSOLUTE
    ll_processExtInitIRQ                     0x00013405   Thumb Code     0  bb_rom_sym_m0.txt ABSOLUTE
    ll_processExtScanIRQ                     0x00013409   Thumb Code     0  bb_rom_sym_m0.txt ABSOLUTE
    ll_processMissMasterEvt                  0x0001340d   Thumb Code     0  bb_rom_sym_m0.txt ABSOLUTE
    ll_processMissSlaveEvt                   0x000134ed   Thumb Code     0  bb_rom_sym_m0.txt ABSOLUTE
    ll_processPrdAdvIRQ                      0x000135f5   Thumb Code     0  bb_rom_sym_m0.txt ABSOLUTE
    ll_processPrdScanIRQ                     0x000135f9   Thumb Code     0  bb_rom_sym_m0.txt ABSOLUTE
    ll_readLocalIRK                          0x000135fd   Thumb Code     0  bb_rom_sym_m0.txt ABSOLUTE
    ll_read_rxfifo                           0x000136c5   Thumb Code     0  bb_rom_sym_m0.txt ABSOLUTE
    ll_schedule_next_event                   0x00013761   Thumb Code     0  bb_rom_sym_m0.txt ABSOLUTE
    ll_scheduler                             0x00013771   Thumb Code     0  bb_rom_sym_m0.txt ABSOLUTE
    ll_scheduler0                            0x00013789   Thumb Code     0  bb_rom_sym_m0.txt ABSOLUTE
    ll_updateAuxAdvTimeSlot                  0x00013a11   Thumb Code     0  bb_rom_sym_m0.txt ABSOLUTE
    ll_updateExtAdvRemainderTime             0x00013a39   Thumb Code     0  bb_rom_sym_m0.txt ABSOLUTE
    log_clr_putc                             0x00013ab9   Thumb Code     0  bb_rom_sym_m0.txt ABSOLUTE
    log_debug_level                          0x00013ac5   Thumb Code     0  bb_rom_sym_m0.txt ABSOLUTE
    log_get_debug_level                      0x00013ad9   Thumb Code     0  bb_rom_sym_m0.txt ABSOLUTE
    log_printf                               0x00013ae5   Thumb Code     0  bb_rom_sym_m0.txt ABSOLUTE
    log_set_putc                             0x00013b05   Thumb Code     0  bb_rom_sym_m0.txt ABSOLUTE
    log_vsprintf                             0x00013b11   Thumb Code     0  bb_rom_sym_m0.txt ABSOLUTE
    move_to_master_function                  0x00013f09   Thumb Code     0  bb_rom_sym_m0.txt ABSOLUTE
    move_to_slave_function                   0x0001406d   Thumb Code     0  bb_rom_sym_m0.txt ABSOLUTE
    osalAddTimer                             0x00014439   Thumb Code     0  bb_rom_sym_m0.txt ABSOLUTE
    osalDeleteTimer                          0x000144a9   Thumb Code     0  bb_rom_sym_m0.txt ABSOLUTE
    osalFindTimer                            0x000144b5   Thumb Code     0  bb_rom_sym_m0.txt ABSOLUTE
    osalTimeUpdate                           0x000144d5   Thumb Code     0  bb_rom_sym_m0.txt ABSOLUTE
    osalTimeUpdate1                          0x00014541   Thumb Code     0  bb_rom_sym_m0.txt ABSOLUTE
    osalTimerInit                            0x0001457d   Thumb Code     0  bb_rom_sym_m0.txt ABSOLUTE
    osalTimerUpdate                          0x00014589   Thumb Code     0  bb_rom_sym_m0.txt ABSOLUTE
    osal_CbTimerInit                         0x00014621   Thumb Code     0  bb_rom_sym_m0.txt ABSOLUTE
    osal_CbTimerProcessEvent                 0x00014641   Thumb Code     0  bb_rom_sym_m0.txt ABSOLUTE
    osal_CbTimerStart                        0x000146a9   Thumb Code     0  bb_rom_sym_m0.txt ABSOLUTE
    osal_CbTimerStop                         0x00014711   Thumb Code     0  bb_rom_sym_m0.txt ABSOLUTE
    osal_CbTimerUpdate                       0x00014751   Thumb Code     0  bb_rom_sym_m0.txt ABSOLUTE
    osal_ConvertUTCSecs                      0x000147a1   Thumb Code     0  bb_rom_sym_m0.txt ABSOLUTE
    osal_ConvertUTCTime                      0x00014841   Thumb Code     0  bb_rom_sym_m0.txt ABSOLUTE
    osal_GetSystemClock                      0x00014949   Thumb Code     0  bb_rom_sym_m0.txt ABSOLUTE
    osal_bm_adjust_header                    0x00014955   Thumb Code     0  bb_rom_sym_m0.txt ABSOLUTE
    osal_bm_adjust_tail                      0x0001497d   Thumb Code     0  bb_rom_sym_m0.txt ABSOLUTE
    osal_bm_alloc                            0x000149a9   Thumb Code     0  bb_rom_sym_m0.txt ABSOLUTE
    osal_bm_free                             0x000149d9   Thumb Code     0  bb_rom_sym_m0.txt ABSOLUTE
    osal_buffer_uint24                       0x00014a21   Thumb Code     0  bb_rom_sym_m0.txt ABSOLUTE
    osal_buffer_uint32                       0x00014a2f   Thumb Code     0  bb_rom_sym_m0.txt ABSOLUTE
    osal_build_uint16                        0x00014a41   Thumb Code     0  bb_rom_sym_m0.txt ABSOLUTE
    osal_build_uint32                        0x00014a4d   Thumb Code     0  bb_rom_sym_m0.txt ABSOLUTE
    osal_clear_event                         0x00014a89   Thumb Code     0  bb_rom_sym_m0.txt ABSOLUTE
    osal_getClock                            0x00014abd   Thumb Code     0  bb_rom_sym_m0.txt ABSOLUTE
    osal_get_timeoutEx                       0x00014ac9   Thumb Code     0  bb_rom_sym_m0.txt ABSOLUTE
    osal_init_system                         0x00014aed   Thumb Code     0  bb_rom_sym_m0.txt ABSOLUTE
    osal_isbufset                            0x00014b1d   Thumb Code     0  bb_rom_sym_m0.txt ABSOLUTE
    osal_mem_alloc                           0x00014b3d   Thumb Code     0  bb_rom_sym_m0.txt ABSOLUTE
    osal_mem_free                            0x00014c01   Thumb Code     0  bb_rom_sym_m0.txt ABSOLUTE
    osal_mem_init                            0x00014c25   Thumb Code     0  bb_rom_sym_m0.txt ABSOLUTE
    osal_mem_kick                            0x00014c8d   Thumb Code     0  bb_rom_sym_m0.txt ABSOLUTE
    osal_mem_set_heap                        0x00014cb5   Thumb Code     0  bb_rom_sym_m0.txt ABSOLUTE
    osal_memcmp                              0x00014ccd   Thumb Code     0  bb_rom_sym_m0.txt ABSOLUTE
    osal_memcpy                              0x00014ce9   Thumb Code     0  bb_rom_sym_m0.txt ABSOLUTE
    osal_memdup                              0x00014cf9   Thumb Code     0  bb_rom_sym_m0.txt ABSOLUTE
    osal_memset                              0x00014d15   Thumb Code     0  bb_rom_sym_m0.txt ABSOLUTE
    osal_msg_allocate                        0x00014d1d   Thumb Code     0  bb_rom_sym_m0.txt ABSOLUTE
    osal_msg_deallocate                      0x00014d43   Thumb Code     0  bb_rom_sym_m0.txt ABSOLUTE
    osal_msg_dequeue                         0x00014d65   Thumb Code     0  bb_rom_sym_m0.txt ABSOLUTE
    osal_msg_enqueue                         0x00014d91   Thumb Code     0  bb_rom_sym_m0.txt ABSOLUTE
    osal_msg_enqueue_max                     0x00014dc3   Thumb Code     0  bb_rom_sym_m0.txt ABSOLUTE
    osal_msg_extract                         0x00014e6d   Thumb Code     0  bb_rom_sym_m0.txt ABSOLUTE
    osal_msg_find                            0x00014e9d   Thumb Code     0  bb_rom_sym_m0.txt ABSOLUTE
    osal_msg_push                            0x00014ed1   Thumb Code     0  bb_rom_sym_m0.txt ABSOLUTE
    osal_msg_push_front                      0x00014eeb   Thumb Code     0  bb_rom_sym_m0.txt ABSOLUTE
    osal_msg_receive                         0x00014ef5   Thumb Code     0  bb_rom_sym_m0.txt ABSOLUTE
    osal_msg_send                            0x00014f59   Thumb Code     0  bb_rom_sym_m0.txt ABSOLUTE
    osal_next_timeout                        0x00014f7d   Thumb Code     0  bb_rom_sym_m0.txt ABSOLUTE
    osal_pwrmgr_device                       0x00014fa5   Thumb Code     0  bb_rom_sym_m0.txt ABSOLUTE
    osal_pwrmgr_init                         0x00014fb1   Thumb Code     0  bb_rom_sym_m0.txt ABSOLUTE
    osal_pwrmgr_powerconserve                0x00014fc1   Thumb Code     0  bb_rom_sym_m0.txt ABSOLUTE
    osal_pwrmgr_powerconserve0               0x00014fd9   Thumb Code     0  bb_rom_sym_m0.txt ABSOLUTE
    osal_pwrmgr_task_state                   0x000150f9   Thumb Code     0  bb_rom_sym_m0.txt ABSOLUTE
    osal_rand                                0x00015129   Thumb Code     0  bb_rom_sym_m0.txt ABSOLUTE
    osal_revmemcpy                           0x00015145   Thumb Code     0  bb_rom_sym_m0.txt ABSOLUTE
    osal_run_system                          0x00015159   Thumb Code     0  bb_rom_sym_m0.txt ABSOLUTE
    osal_self                                0x000151f5   Thumb Code     0  bb_rom_sym_m0.txt ABSOLUTE
    osal_setClock                            0x00015201   Thumb Code     0  bb_rom_sym_m0.txt ABSOLUTE
    osal_set_event                           0x0001520d   Thumb Code     0  bb_rom_sym_m0.txt ABSOLUTE
    osal_start_reload_timer                  0x00015259   Thumb Code     0  bb_rom_sym_m0.txt ABSOLUTE
    osal_start_system                        0x00015285   Thumb Code     0  bb_rom_sym_m0.txt ABSOLUTE
    osal_start_timerEx                       0x0001528b   Thumb Code     0  bb_rom_sym_m0.txt ABSOLUTE
    osal_stop_timerEx                        0x000152b3   Thumb Code     0  bb_rom_sym_m0.txt ABSOLUTE
    osal_strlen                              0x000152dd   Thumb Code     0  bb_rom_sym_m0.txt ABSOLUTE
    osal_timer_num_active                    0x000152e5   Thumb Code     0  bb_rom_sym_m0.txt ABSOLUTE
    phy_sec_app_key                          0x00015315   Thumb Code     0  bb_rom_sym_m0.txt ABSOLUTE
    phy_sec_decrypt                          0x0001531d   Thumb Code     0  bb_rom_sym_m0.txt ABSOLUTE
    phy_sec_efuse_lock                       0x0001532d   Thumb Code     0  bb_rom_sym_m0.txt ABSOLUTE
    phy_sec_encrypt                          0x00015339   Thumb Code     0  bb_rom_sym_m0.txt ABSOLUTE
    phy_sec_init                             0x00015349   Thumb Code     0  bb_rom_sym_m0.txt ABSOLUTE
    phy_sec_key_valid                        0x0001540d   Thumb Code     0  bb_rom_sym_m0.txt ABSOLUTE
    prog_process_data                        0x00015b19   Thumb Code     0  bb_rom_sym_m0.txt ABSOLUTE
    prog_uart_command                        0x00015c51   Thumb Code     0  bb_rom_sym_m0.txt ABSOLUTE
    prog_uart_fct_command                    0x00015c71   Thumb Code     0  bb_rom_sym_m0.txt ABSOLUTE
    prog_uart_handle                         0x00015c8d   Thumb Code     0  bb_rom_sym_m0.txt ABSOLUTE
    read_LL_remainder_time                   0x00015cbd   Thumb Code     0  bb_rom_sym_m0.txt ABSOLUTE
    read_current_fine_time                   0x00015cc9   Thumb Code     0  bb_rom_sym_m0.txt ABSOLUTE
    read_ll_adv_remainder_time               0x00015cf1   Thumb Code     0  bb_rom_sym_m0.txt ABSOLUTE
    reset_conn_buf                           0x00015cfd   Thumb Code     0  bb_rom_sym_m0.txt ABSOLUTE
    rom_board_init                           0x00016a09   Thumb Code     0  bb_rom_sym_m0.txt ABSOLUTE
    rtc_clear                                0x00016ab5   Thumb Code     0  bb_rom_sym_m0.txt ABSOLUTE
    rtc_config_prescale                      0x00016ad1   Thumb Code     0  bb_rom_sym_m0.txt ABSOLUTE
    rtc_get_counter                          0x00016b15   Thumb Code     0  bb_rom_sym_m0.txt ABSOLUTE
    rtc_start                                0x00016b25   Thumb Code     0  bb_rom_sym_m0.txt ABSOLUTE
    rtc_stop                                 0x00016b35   Thumb Code     0  bb_rom_sym_m0.txt ABSOLUTE
    setSleepMode                             0x00016b45   Thumb Code     0  bb_rom_sym_m0.txt ABSOLUTE
    set_access_address                       0x00016b51   Thumb Code     0  bb_rom_sym_m0.txt ABSOLUTE
    set_channel                              0x00016b5d   Thumb Code     0  bb_rom_sym_m0.txt ABSOLUTE
    set_crc_seed                             0x00016b9d   Thumb Code     0  bb_rom_sym_m0.txt ABSOLUTE
    set_gpio_pull_down_ate                   0x00016bb5   Thumb Code     0  bb_rom_sym_m0.txt ABSOLUTE
    set_gpio_pull_up_ate                     0x00016bcb   Thumb Code     0  bb_rom_sym_m0.txt ABSOLUTE
    set_int                                  0x00016be1   Thumb Code     0  bb_rom_sym_m0.txt ABSOLUTE
    set_max_length                           0x00016bed   Thumb Code     0  bb_rom_sym_m0.txt ABSOLUTE
    set_sleep_flag                           0x00016c01   Thumb Code     0  bb_rom_sym_m0.txt ABSOLUTE
    set_timer                                0x00016c2d   Thumb Code     0  bb_rom_sym_m0.txt ABSOLUTE
    set_whiten_seed                          0x00016cc9   Thumb Code     0  bb_rom_sym_m0.txt ABSOLUTE
    spif_cmd                                 0x00016d49   Thumb Code     0  bb_rom_sym_m0.txt ABSOLUTE
    spif_config                              0x00016dc5   Thumb Code     0  bb_rom_sym_m0.txt ABSOLUTE
    spif_erase_all                           0x00016ea1   Thumb Code     0  bb_rom_sym_m0.txt ABSOLUTE
    spif_erase_block64                       0x00016ed1   Thumb Code     0  bb_rom_sym_m0.txt ABSOLUTE
    spif_erase_chip                          0x00016f55   Thumb Code     0  bb_rom_sym_m0.txt ABSOLUTE
    spif_erase_sector                        0x00016fa9   Thumb Code     0  bb_rom_sym_m0.txt ABSOLUTE
    spif_flash_size                          0x00017029   Thumb Code     0  bb_rom_sym_m0.txt ABSOLUTE
    spif_flash_status_reg_0                  0x0001703d   Thumb Code     0  bb_rom_sym_m0.txt ABSOLUTE
    spif_flash_status_reg_1                  0x00017047   Thumb Code     0  bb_rom_sym_m0.txt ABSOLUTE
    spif_init                                0x00017051   Thumb Code     0  bb_rom_sym_m0.txt ABSOLUTE
    spif_rddata                              0x0001713d   Thumb Code     0  bb_rom_sym_m0.txt ABSOLUTE
    spif_read                                0x00017165   Thumb Code     0  bb_rom_sym_m0.txt ABSOLUTE
    spif_release_deep_sleep                  0x000172cd   Thumb Code     0  bb_rom_sym_m0.txt ABSOLUTE
    spif_set_deep_sleep                      0x00017349   Thumb Code     0  bb_rom_sym_m0.txt ABSOLUTE
    spif_wrdata                              0x0001736d   Thumb Code     0  bb_rom_sym_m0.txt ABSOLUTE
    spif_write                               0x00017395   Thumb Code     0  bb_rom_sym_m0.txt ABSOLUTE
    spif_write_dma                           0x0001744d   Thumb Code     0  bb_rom_sym_m0.txt ABSOLUTE
    spif_write_protect                       0x000174f9   Thumb Code     0  bb_rom_sym_m0.txt ABSOLUTE
    sram_ret_patch                           0x00017591   Thumb Code     0  bb_rom_sym_m0.txt ABSOLUTE
    update_rx_read_ptr                       0x00017609   Thumb Code     0  bb_rom_sym_m0.txt ABSOLUTE
    update_rx_write_ptr                      0x00017635   Thumb Code     0  bb_rom_sym_m0.txt ABSOLUTE
    update_tx_read_ptr                       0x00017659   Thumb Code     0  bb_rom_sym_m0.txt ABSOLUTE
    update_tx_write_ptr                      0x00017685   Thumb Code     0  bb_rom_sym_m0.txt ABSOLUTE
    wakeupProcess                            0x000176a9   Thumb Code     0  bb_rom_sym_m0.txt ABSOLUTE
    wakeupProcess0                           0x000176c5   Thumb Code     0  bb_rom_sym_m0.txt ABSOLUTE
    wakeup_init                              0x000178a5   Thumb Code     0  bb_rom_sym_m0.txt ABSOLUTE
    wakeup_init0                             0x000178bd   Thumb Code     0  bb_rom_sym_m0.txt ABSOLUTE
    zigbee_crc16_gen                         0x0001798d   Thumb Code     0  bb_rom_sym_m0.txt ABSOLUTE
    supportedCmdsTable                       0x00017c00   Data           0  bb_rom_sym_m0.txt ABSOLUTE
    hciCmdTable                              0x00017c44   Data           0  bb_rom_sym_m0.txt ABSOLUTE
    SCA                                      0x00017c4c   Data           0  bb_rom_sym_m0.txt ABSOLUTE
    FindMy_Init                              0x11020001   Thumb Code   308  findmy.o(.text.FindMy_Init)
    FindMy_ProcessEvent                      0x1102014d   Thumb Code   352  findmy.o(.text.FindMy_ProcessEvent)
    GAPMultiRole_CancelDiscovery             0x110202d5   Thumb Code    12  multi.o(.text.GAPMultiRole_CancelDiscovery)
    GAPMultiRole_Init                        0x110202e1   Thumb Code    36  multi.o(.text.GAPMultiRole_Init)
    GAPMultiRole_ProcessEvent                0x11020309   Thumb Code   192  multi.o(.text.GAPMultiRole_ProcessEvent)
    GAPMultiRole_SetParameter                0x110203c9   Thumb Code    68  multi.o(.text.GAPMultiRole_SetParameter)
    GAPMultiRole_StartDevice                 0x11020411   Thumb Code    32  multi.o(.text.GAPMultiRole_StartDevice)
    GAPMultiRole_StartDiscovery              0x11020431   Thumb Code    28  multi.o(.text.GAPMultiRole_StartDiscovery)
    GAPRole_SetParameter                     0x1102044d   Thumb Code   400  multi.o(.text.GAPRole_SetParameter)
    GAP_DeviceInit                           0x110205e9   Thumb Code    48  gap.o(.text.GAP_DeviceInit)
    hal_GPIO_IRQHandler                      0x11020799   Thumb Code   168  gpio.o(.text.hal_GPIO_IRQHandler)
    hal_gpio_fmux                            0x11020845   Thumb Code    28  gpio.o(.text.hal_gpio_fmux)
    hal_gpio_fmux_set                        0x11020861   Thumb Code    52  gpio.o(.text.hal_gpio_fmux_set)
    hal_gpio_init                            0x11020899   Thumb Code    76  gpio.o(.text.hal_gpio_init)
    hal_gpio_pull_set                        0x110208f1   Thumb Code    56  gpio.o(.text.hal_gpio_pull_set)
    hal_gpio_read                            0x11020929   Thumb Code    24  gpio.o(.text.hal_gpio_read)
    hal_gpioin_enable                        0x11020c09   Thumb Code   220  gpio.o(.text.hal_gpioin_enable)
    hal_gpioin_register                      0x11020ce9   Thumb Code   260  gpio.o(.text.hal_gpioin_register)
    hal_pwm_ch_start                         0x11020e01   Thumb Code   324  pwm.o(.text.hal_pwm_ch_start)
    hal_pwm_ch_stop                          0x11020f4d   Thumb Code   124  pwm.o(.text.hal_pwm_ch_stop)
    hal_pwm_module_init                      0x11020fcd   Thumb Code   500  pwm.o(.text.hal_pwm_module_init)
    Long Thumb to Thumb Veneer to key_init   0x110211ed   Thumb Code    12  anon$$obj.o(Veneer$$Code)
    Long Thumb to Thumb Veneer to osal_memcpy 0x110211f9   Thumb Code    12  anon$$obj.o(Veneer$$Code)
    Long Thumb to Thumb Veneer to osal_set_event 0x11021205   Thumb Code    12  anon$$obj.o(Veneer$$Code)
    Long Thumb to Thumb Veneer to LL_PLUS_PerStats_Init 0x11021211   Thumb Code    12  anon$$obj.o(Veneer$$Code)
    Long Thumb to Thumb Veneer to gpio_key_timer_handler 0x1102121d   Thumb Code    12  anon$$obj.o(Veneer$$Code)
    Long Thumb to Thumb Veneer to __aeabi_idivmod 0x11021229   Thumb Code    12  anon$$obj.o(Veneer$$Code)
    Long Thumb to Thumb Veneer to osal_start_timerEx 0x11021235   Thumb Code    12  anon$$obj.o(Veneer$$Code)
    Long Thumb to Thumb Veneer to osal_msg_receive 0x11021241   Thumb Code    12  anon$$obj.o(Veneer$$Code)
    Long Thumb to Thumb Veneer to osal_msg_deallocate 0x1102124d   Thumb Code    12  anon$$obj.o(Veneer$$Code)
    Long Thumb to Thumb Veneer to osal_memset 0x11021259   Thumb Code    12  anon$$obj.o(Veneer$$Code)
    Long Thumb to Thumb Veneer to osal_stop_timerEx 0x11021265   Thumb Code    12  anon$$obj.o(Veneer$$Code)
    Long Thumb to Thumb Veneer to strstr     0x11021271   Thumb Code    12  anon$$obj.o(Veneer$$Code)
    Long Thumb to Thumb Veneer to __aeabi_memclr4 0x1102127d   Thumb Code    12  anon$$obj.o(Veneer$$Code)
    Long Thumb to Thumb Veneer to hal_pwrmgr_register 0x11021289   Thumb Code    12  anon$$obj.o(Veneer$$Code)
    Long Thumb to Thumb Veneer to hal_clk_gate_enable 0x11021295   Thumb Code    12  anon$$obj.o(Veneer$$Code)
    Long Thumb to Thumb Veneer to hal_pwrmgr_lock 0x110212a1   Thumb Code    12  anon$$obj.o(Veneer$$Code)
    Long Thumb to Thumb Veneer to hal_pwrmgr_unlock 0x110212ad   Thumb Code    12  anon$$obj.o(Veneer$$Code)
    Long Thumb to Thumb Veneer to hal_clk_gate_disable 0x110212b9   Thumb Code    12  anon$$obj.o(Veneer$$Code)
    Long Thumb to Thumb Veneer to enableSleep 0x110212c5   Thumb Code    12  anon$$obj.o(Veneer$$Code)
    Long Thumb to Thumb Veneer to setSleepMode 0x110212d1   Thumb Code    12  anon$$obj.o(Veneer$$Code)
    Long Thumb to Thumb Veneer to WaitRTCCount 0x110212dd   Thumb Code    12  anon$$obj.o(Veneer$$Code)
    Long Thumb to Thumb Veneer to LL_ENC_AES128_Encrypt 0x110212e9   Thumb Code    12  anon$$obj.o(Veneer$$Code)
    Long Thumb to Thumb Veneer to read_current_fine_time 0x110212f5   Thumb Code    12  anon$$obj.o(Veneer$$Code)
    Long Thumb to Thumb Veneer to osal_mem_alloc 0x11021301   Thumb Code    12  anon$$obj.o(Veneer$$Code)
    Long Thumb to Thumb Veneer to HCI_LE_SetScanParamCmd 0x1102130d   Thumb Code    12  anon$$obj.o(Veneer$$Code)
    Long Thumb to Thumb Veneer to HCI_LE_SetAdvEnableCmd 0x11021319   Thumb Code    12  anon$$obj.o(Veneer$$Code)
    Long Thumb to Thumb Veneer to HCI_GAPTaskRegister 0x11021325   Thumb Code    12  anon$$obj.o(Veneer$$Code)
    Long Thumb to Thumb Veneer to osal_start_reload_timer 0x11021331   Thumb Code    12  anon$$obj.o(Veneer$$Code)
    Long Thumb to Thumb Veneer to HCI_ReadBDADDRCmd 0x1102133d   Thumb Code    12  anon$$obj.o(Veneer$$Code)
    Long Thumb to Thumb Veneer to osal_mem_free 0x11021349   Thumb Code    12  anon$$obj.o(Veneer$$Code)
    Long Thumb to Thumb Veneer to osal_msg_send 0x11021355   Thumb Code    12  anon$$obj.o(Veneer$$Code)
    Long Thumb to Thumb Veneer to HCI_LE_SetAdvDataCmd 0x11021361   Thumb Code    12  anon$$obj.o(Veneer$$Code)
    Long Thumb to Thumb Veneer to HCI_LE_SetScanRspDataCmd 0x1102136d   Thumb Code    12  anon$$obj.o(Veneer$$Code)
    Long Thumb to Thumb Veneer to LL_TX_bm_alloc 0x11021379   Thumb Code    12  anon$$obj.o(Veneer$$Code)
    Long Thumb to Thumb Veneer to osal_bm_free 0x11021385   Thumb Code    12  anon$$obj.o(Veneer$$Code)
    Long Thumb to Thumb Veneer to HCI_bm_alloc 0x11021391   Thumb Code    12  anon$$obj.o(Veneer$$Code)
    Long Thumb to Thumb Veneer to osal_bm_adjust_header 0x1102139d   Thumb Code    12  anon$$obj.o(Veneer$$Code)
    Long Thumb to Thumb Veneer to HCI_DisconnectCmd 0x110213a9   Thumb Code    12  anon$$obj.o(Veneer$$Code)
    Long Thumb to Thumb Veneer to HCI_LE_CreateConnCancelCmd 0x110213b5   Thumb Code    12  anon$$obj.o(Veneer$$Code)
    Long Thumb to Thumb Veneer to osal_memcmp 0x110213c1   Thumb Code    12  anon$$obj.o(Veneer$$Code)
    Long Thumb to Thumb Veneer to __ARM_common_switch8 0x110213cd   Thumb Code    12  anon$$obj.o(Veneer$$Code)
    Long Thumb to Thumb Veneer to HCI_ValidConnTimeParams 0x110213d9   Thumb Code    12  anon$$obj.o(Veneer$$Code)
    Long Thumb to Thumb Veneer to HCI_LE_ConnUpdateCmd 0x110213e5   Thumb Code    12  anon$$obj.o(Veneer$$Code)
    Long Thumb to Thumb Veneer to HCI_LE_SetRandomAddressCmd 0x110213f1   Thumb Code    12  anon$$obj.o(Veneer$$Code)
    Long Thumb to Thumb Veneer to osal_msg_allocate 0x110213fd   Thumb Code    12  anon$$obj.o(Veneer$$Code)
    Long Thumb to Thumb Veneer to HCI_LE_ReadBufSizeCmd 0x11021409   Thumb Code    12  anon$$obj.o(Veneer$$Code)
    Long Thumb to Thumb Veneer to HCI_LE_SetScanEnableCmd 0x11021415   Thumb Code    12  anon$$obj.o(Veneer$$Code)
    Long Thumb to Thumb Veneer to HCI_LE_SetAdvParamCmd 0x11021421   Thumb Code    12  anon$$obj.o(Veneer$$Code)
    Long Thumb to Thumb Veneer to l2capSegmentBuffToLinkLayer 0x1102142d   Thumb Code    12  anon$$obj.o(Veneer$$Code)
    Long Thumb to Thumb Veneer to L2CAP_Fragment_SendDataPkt 0x11021439   Thumb Code    12  anon$$obj.o(Veneer$$Code)
    Long Thumb to Thumb Veneer to __aeabi_uidivmod 0x11021445   Thumb Code    12  anon$$obj.o(Veneer$$Code)
    Long Thumb to Thumb Veneer to LL_Encrypt 0x11021451   Thumb Code    12  anon$$obj.o(Veneer$$Code)
    Long Thumb to Thumb Veneer to osal_rand  0x1102145d   Thumb Code    12  anon$$obj.o(Veneer$$Code)
    Long Thumb to Thumb Veneer to osal_revmemcpy 0x11021469   Thumb Code    12  anon$$obj.o(Veneer$$Code)
    init_config                              0x11021475   Thumb Code   588  patch.o(_section_xip_code_)
    TRNG_INIT                                0x11021709   Thumb Code    34  patch.o(_section_xip_code_)
    TRNG_Rand                                0x1102172b   Thumb Code   152  patch.o(_section_xip_code_)
    ATT_GetCurrentMTUSize                    0x1102186d   Thumb Code     8  att_util.o(i.ATT_GetCurrentMTUSize)
    ATT_UpdateMtuSize                        0x11021879   Thumb Code    18  att_util.o(i.ATT_UpdateMtuSize)
    GAP_CentDevMgrInit                       0x11021891   Thumb Code    52  gap_centdevmgr.o(i.GAP_CentDevMgrInit)
    GAP_DeviceDiscoveryCancel                0x110218cd   Thumb Code    48  gap_centdevmgr.o(i.GAP_DeviceDiscoveryCancel)
    GAP_DeviceDiscoveryRequest               0x11021905   Thumb Code   142  gap_centdevmgr.o(i.GAP_DeviceDiscoveryRequest)
    GAP_EndDiscoverable                      0x110219a1   Thumb Code    66  gap_peridevmgr.o(i.GAP_EndDiscoverable)
    GAP_GetParamValue                        0x110219f5   Thumb Code    16  gap_configmgr.o(i.GAP_GetParamValue)
    GAP_Init                                 0x11021a0d   Thumb Code    26  gap_task.o(i.GAP_Init)
    GAP_MakeDiscoverable                     0x11021a2d   Thumb Code   162  gap_peridevmgr.o(i.GAP_MakeDiscoverable)
    GAP_NumActiveConnections                 0x11021aed   Thumb Code     8  gap_task.o(i.GAP_NumActiveConnections)
    GAP_ParamsInit                           0x11021af5   Thumb Code    46  gap_configmgr.o(i.GAP_ParamsInit)
    GAP_PeriDevMgrInit                       0x11021b2d   Thumb Code    64  gap_peridevmgr.o(i.GAP_PeriDevMgrInit)
    GAP_ProcessEvent                         0x11021b75   Thumb Code   210  gap_task.o(i.GAP_ProcessEvent)
    GAP_RegisterForHCIMsgs                   0x11021c55   Thumb Code     6  gap_task.o(i.GAP_RegisterForHCIMsgs)
    GAP_SetParamValue                        0x11021c61   Thumb Code    24  gap_configmgr.o(i.GAP_SetParamValue)
    GAP_UpdateAdvertisingData                0x11021c81   Thumb Code   106  gap_peridevmgr.o(i.GAP_UpdateAdvertisingData)
    L2CAP_BuildCmdReject                     0x11021cf5   Thumb Code    66  l2cap_util.o(i.L2CAP_BuildCmdReject)
    L2CAP_BuildParamUpdateRsp                0x11021d37   Thumb Code    14  l2cap_util.o(i.L2CAP_BuildParamUpdateRsp)
    L2CAP_CmdReject                          0x11021d45   Thumb Code    18  l2cap_if.o(i.L2CAP_CmdReject)
    L2CAP_ConnParamUpdateRsp                 0x11021d5d   Thumb Code    18  l2cap_if.o(i.L2CAP_ConnParamUpdateRsp)
    L2CAP_Fragment_bm_alloc                  0x11021d75   Thumb Code     8  l2cap_util.o(i.L2CAP_Fragment_bm_alloc)
    L2CAP_ReassemblePkt_Reset                0x11021d7d   Thumb Code    30  l2cap_util.o(i.L2CAP_ReassemblePkt_Reset)
    L2CAP_RegisterApp                        0x11021da1   Thumb Code    40  l2cap_if.o(i.L2CAP_RegisterApp)
    L2CAP_SegmentPkt_Reset                   0x11021dcd   Thumb Code    64  l2cap_util.o(i.L2CAP_SegmentPkt_Reset)
    L2CAP_bm_alloc                           0x11021e11   Thumb Code    24  l2cap_util.o(i.L2CAP_bm_alloc)
    SM_CalcRandomAddr                        0x11021e29   Thumb Code    68  sm_mgr.o(i.SM_CalcRandomAddr)
    gapAddAddrAdj                            0x11021e87   Thumb Code    50  gap_configmgr.o(i.gapAddAddrAdj)
    gapCancelLinkReq                         0x11021f55   Thumb Code    50  gap_centlinkmgr.o(i.gapCancelLinkReq)
    gapDetermineAddrType                     0x11021fbd   Thumb Code    30  gap_configmgr.o(i.gapDetermineAddrType)
    gapFindADType                            0x11021fdb   Thumb Code    72  gap_devmgr.o(i.gapFindADType)
    gapFreeEstLink                           0x110220c9   Thumb Code    20  gap_linkmgr.o(i.gapFreeEstLink)
    gapGetIRK                                0x11022165   Thumb Code     6  gap_configmgr.o(i.gapGetIRK)
    gapIsAdvertising                         0x11022171   Thumb Code    12  gap_devmgr.o(i.gapIsAdvertising)
    gapProcessConnUpdateCmdStatus            0x11022411   Thumb Code    20  gap_centlinkmgr.o(i.gapProcessConnUpdateCmdStatus)
    gapProcessConnUpdateCompleteEvt          0x11022425   Thumb Code    20  gap_linkmgr.o(i.gapProcessConnUpdateCompleteEvt)
    gapProcessConnectionCompleteEvt          0x11022439   Thumb Code   208  gap_linkmgr.o(i.gapProcessConnectionCompleteEvt)
    gapProcessCreateLLConnCmdStatus          0x11022519   Thumb Code    46  gap_centlinkmgr.o(i.gapProcessCreateLLConnCmdStatus)
    gapProcessDisconnectCompleteEvt          0x1102254d   Thumb Code   106  gap_linkmgr.o(i.gapProcessDisconnectCompleteEvt)
    gapProcessL2CAPSignalEvt                 0x1102267d   Thumb Code    94  gap_centlinkmgr.o(i.gapProcessL2CAPSignalEvt)
    gapProcessNewAddr                        0x110226dd   Thumb Code    40  gap_configmgr.o(i.gapProcessNewAddr)
    gapProcessRandomAddrComplete             0x110227dd   Thumb Code    92  gap_configmgr.o(i.gapProcessRandomAddrComplete)
    gapReadBD_ADDRStatus                     0x110228a9   Thumb Code    62  gap_configmgr.o(i.gapReadBD_ADDRStatus)
    gapReadBufSizeCmdStatus                  0x110228ed   Thumb Code    56  gap_configmgr.o(i.gapReadBufSizeCmdStatus)
    gapRegisterCentral                       0x11022929   Thumb Code     6  gap_task.o(i.gapRegisterCentral)
    gapRegisterPeripheral                    0x11022935   Thumb Code     6  gap_task.o(i.gapRegisterPeripheral)
    gapSendLinkUpdateEvent                   0x11022ac1   Thumb Code    68  gap_linkmgr.o(i.gapSendLinkUpdateEvent)
    gapSetAdvParams                          0x11022b61   Thumb Code   128  gap_peridevmgr.o(i.gapSetAdvParams)
    gapSetAdvParamsStatus                    0x11022be9   Thumb Code    40  gap_peridevmgr.o(i.gapSetAdvParamsStatus)
    gapSetScanParamStatus                    0x11022c15   Thumb Code    72  gap_centdevmgr.o(i.gapSetScanParamStatus)
    gapTerminateConnComplete                 0x11022c65   Thumb Code     8  gap_centlinkmgr.o(i.gapTerminateConnComplete)
    gapValidADType                           0x11022c6d   Thumb Code    18  gap_devmgr.o(i.gapValidADType)
    gapWriteAdvDataStatus                    0x11022c81   Thumb Code    44  gap_peridevmgr.o(i.gapWriteAdvDataStatus)
    gapWriteAdvEnableStatus                  0x11022cb1   Thumb Code   164  gap_peridevmgr.o(i.gapWriteAdvEnableStatus)
    l2capEncapSendData                       0x11022d95   Thumb Code   162  l2cap_util.o(i.l2capEncapSendData)
    l2capPktToSegmentBuff                    0x11022e45   Thumb Code   252  l2cap_util.o(i.l2capPktToSegmentBuff)
    l2capSendCmd                             0x11022f49   Thumb Code    96  l2cap_util.o(i.l2capSendCmd)
    linkDB_Add                               0x11022fa9   Thumb Code    84  linkdb.o(i.linkDB_Add)
    linkDB_Find                              0x11023001   Thumb Code    36  linkdb.o(i.linkDB_Find)
    linkDB_FindFirst                         0x11023029   Thumb Code    46  linkdb.o(i.linkDB_FindFirst)
    linkDB_Init                              0x11023061   Thumb Code    50  linkdb.o(i.linkDB_Init)
    linkDB_NumActive                         0x1102309d   Thumb Code    32  linkdb.o(i.linkDB_NumActive)
    linkDB_Remove                            0x110230c1   Thumb Code    54  linkdb.o(i.linkDB_Remove)
    sendEstLinkEvent                         0x11023121   Thumb Code    90  gap_linkmgr.o(i.sendEstLinkEvent)
    smGenerateRandBuf                        0x110231b5   Thumb Code    38  sm_mgr.o(i.smGenerateRandBuf)
    sm_ah                                    0x110231db   Thumb Code    68  sm_mgr.o(i.sm_ah)
    c_gpio_index                             0x1102321e   Data          23  gpio.o(.rodata.c_gpio_index)
    c_gpio_pull                              0x11023235   Data          69  gpio.o(.rodata.c_gpio_pull)
    retention_reg                            0x11023284   Data          46  gpio.o(.rodata.retention_reg)
    jump_table_base                          0x1fff0000   Data        1024  jump_table.o(jump_table_mem_area)
    global_config                            0x1fff0400   Data        1024  jump_table.o(global_config_area)
    hclk_per_us                              0x1fff0818   Data           0  bb_rom_sym_m0.txt ABSOLUTE
    hclk_per_us_shift                        0x1fff081c   Data           0  bb_rom_sym_m0.txt ABSOLUTE
    s_prog_time_save                         0x1fff0828   Data           0  bb_rom_sym_m0.txt ABSOLUTE
    s_prog_timeout                           0x1fff082c   Data           0  bb_rom_sym_m0.txt ABSOLUTE
    DFL_ENTRY_BASE                           0x1fff0830   Data           0  bb_rom_sym_m0.txt ABSOLUTE
    receive_timeout_flag                     0x1fff0850   Data           0  bb_rom_sym_m0.txt ABSOLUTE
    osal_sys_tick                            0x1fff0860   Data           0  bb_rom_sym_m0.txt ABSOLUTE
    g_timer4_irq_pending_time                0x1fff0864   Data           0  bb_rom_sym_m0.txt ABSOLUTE
    g_hclk                                   0x1fff0874   Data           0  bb_rom_sym_m0.txt ABSOLUTE
    m_in_critical_region                     0x1fff0878   Data           0  bb_rom_sym_m0.txt ABSOLUTE
    s_rom_debug_level                        0x1fff0888   Data           0  bb_rom_sym_m0.txt ABSOLUTE
    s_spif_ctx                               0x1fff0894   Data           0  bb_rom_sym_m0.txt ABSOLUTE
    osal_qHead                               0x1fff08b8   Data           0  bb_rom_sym_m0.txt ABSOLUTE
    baseTaskID                               0x1fff08c0   Data           0  bb_rom_sym_m0.txt ABSOLUTE
    OSAL_timeSeconds                         0x1fff08cc   Data           0  bb_rom_sym_m0.txt ABSOLUTE
    ll_remain_time                           0x1fff08e4   Data           0  bb_rom_sym_m0.txt ABSOLUTE
    pwrmgr_attribute                         0x1fff08e8   Data           0  bb_rom_sym_m0.txt ABSOLUTE
    timerHead                                0x1fff08f0   Data           0  bb_rom_sym_m0.txt ABSOLUTE
    hciPTMenabled                            0x1fff08f8   Data           0  bb_rom_sym_m0.txt ABSOLUTE
    ctrlToHostEnable                         0x1fff08f9   Data           0  bb_rom_sym_m0.txt ABSOLUTE
    numHostBufs                              0x1fff08fa   Data           0  bb_rom_sym_m0.txt ABSOLUTE
    hciCtrlCmdToken                          0x1fff08fc   Data           0  bb_rom_sym_m0.txt ABSOLUTE
    bleEvtMask                               0x1fff0900   Data           0  bb_rom_sym_m0.txt ABSOLUTE
    pHciEvtMask                              0x1fff0904   Data           0  bb_rom_sym_m0.txt ABSOLUTE
    hciTaskID                                0x1fff090c   Data           0  bb_rom_sym_m0.txt ABSOLUTE
    hciTestTaskID                            0x1fff090d   Data           0  bb_rom_sym_m0.txt ABSOLUTE
    hciGapTaskID                             0x1fff090e   Data           0  bb_rom_sym_m0.txt ABSOLUTE
    hciL2capTaskID                           0x1fff090f   Data           0  bb_rom_sym_m0.txt ABSOLUTE
    hciSmpTaskID                             0x1fff0910   Data           0  bb_rom_sym_m0.txt ABSOLUTE
    hciExtTaskID                             0x1fff0911   Data           0  bb_rom_sym_m0.txt ABSOLUTE
    g_maxConnNum                             0x1fff0914   Data           0  bb_rom_sym_m0.txt ABSOLUTE
    g_maxPktPerEventTx                       0x1fff0915   Data           0  bb_rom_sym_m0.txt ABSOLUTE
    g_maxPktPerEventRx                       0x1fff0916   Data           0  bb_rom_sym_m0.txt ABSOLUTE
    g_blePktVersion                          0x1fff0917   Data           0  bb_rom_sym_m0.txt ABSOLUTE
    g_llRlEnable                             0x1fff0918   Data           0  bb_rom_sym_m0.txt ABSOLUTE
    g_llScanMode                             0x1fff0919   Data           0  bb_rom_sym_m0.txt ABSOLUTE
    g_llAdvMode                              0x1fff091a   Data           0  bb_rom_sym_m0.txt ABSOLUTE
    LL_TaskID                                0x1fff091b   Data           0  bb_rom_sym_m0.txt ABSOLUTE
    llState                                  0x1fff091c   Data           0  bb_rom_sym_m0.txt ABSOLUTE
    numComplPkts                             0x1fff091d   Data           0  bb_rom_sym_m0.txt ABSOLUTE
    numComplPktsLimit                        0x1fff091e   Data           0  bb_rom_sym_m0.txt ABSOLUTE
    fastTxRespTime                           0x1fff091f   Data           0  bb_rom_sym_m0.txt ABSOLUTE
    g_llWlDeviceNum                          0x1fff0920   Data           0  bb_rom_sym_m0.txt ABSOLUTE
    g_llRlDeviceNum                          0x1fff0921   Data           0  bb_rom_sym_m0.txt ABSOLUTE
    rxFifoFlowCtrl                           0x1fff0922   Data           0  bb_rom_sym_m0.txt ABSOLUTE
    llSecondaryState                         0x1fff0923   Data           0  bb_rom_sym_m0.txt ABSOLUTE
    g_extAdvNumber                           0x1fff0924   Data           0  bb_rom_sym_m0.txt ABSOLUTE
    g_perioAdvNumber                         0x1fff0925   Data           0  bb_rom_sym_m0.txt ABSOLUTE
    g_schExtAdvNum                           0x1fff0926   Data           0  bb_rom_sym_m0.txt ABSOLUTE
    g_currentExtAdv                          0x1fff0927   Data           0  bb_rom_sym_m0.txt ABSOLUTE
    g_schExtAdvNum_periodic                  0x1fff0928   Data           0  bb_rom_sym_m0.txt ABSOLUTE
    g_currentExtAdv_periodic                 0x1fff0929   Data           0  bb_rom_sym_m0.txt ABSOLUTE
    g_llRlTimeout                            0x1fff092c   Data           0  bb_rom_sym_m0.txt ABSOLUTE
    g_advSetMaximumLen                       0x1fff0930   Data           0  bb_rom_sym_m0.txt ABSOLUTE
    conn_param                               0x1fff0934   Data           0  bb_rom_sym_m0.txt ABSOLUTE
    g_pExtendedAdvInfo                       0x1fff0938   Data           0  bb_rom_sym_m0.txt ABSOLUTE
    g_pPeriodicAdvInfo                       0x1fff093c   Data           0  bb_rom_sym_m0.txt ABSOLUTE
    g_pLLcteISample                          0x1fff0940   Data           0  bb_rom_sym_m0.txt ABSOLUTE
    g_pLLcteQSample                          0x1fff0944   Data           0  bb_rom_sym_m0.txt ABSOLUTE
    g_llHdcDirAdvTime                        0x1fff0948   Data           0  bb_rom_sym_m0.txt ABSOLUTE
    g_pAdvSchInfo                            0x1fff094c   Data           0  bb_rom_sym_m0.txt ABSOLUTE
    g_advPerSlotTick                         0x1fff0950   Data           0  bb_rom_sym_m0.txt ABSOLUTE
    g_advSlotPeriodic                        0x1fff0954   Data           0  bb_rom_sym_m0.txt ABSOLUTE
    g_pAdvSchInfo_periodic                   0x1fff0958   Data           0  bb_rom_sym_m0.txt ABSOLUTE
    g_timerExpiryTick                        0x1fff095c   Data           0  bb_rom_sym_m0.txt ABSOLUTE
    chanMapUpdate                            0x1fff0960   Data           0  bb_rom_sym_m0.txt ABSOLUTE
    ownPublicAddr                            0x1fff0965   Data           0  bb_rom_sym_m0.txt ABSOLUTE
    ownRandomAddr                            0x1fff096b   Data           0  bb_rom_sym_m0.txt ABSOLUTE
    verInfo                                  0x1fff0972   Data           0  bb_rom_sym_m0.txt ABSOLUTE
    peerInfo                                 0x1fff0978   Data           0  bb_rom_sym_m0.txt ABSOLUTE
    g_currentAdvTimer                        0x1fff0980   Data           0  bb_rom_sym_m0.txt ABSOLUTE
    g_currentTimerTask                       0x1fff0984   Data           0  bb_rom_sym_m0.txt ABSOLUTE
    g_adv_taskID                             0x1fff0988   Data           0  bb_rom_sym_m0.txt ABSOLUTE
    g_conn_taskID                            0x1fff0989   Data           0  bb_rom_sym_m0.txt ABSOLUTE
    g_smartWindowRTOCnt                      0x1fff098a   Data           0  bb_rom_sym_m0.txt ABSOLUTE
    isPeerRpaStore                           0x1fff098b   Data           0  bb_rom_sym_m0.txt ABSOLUTE
    g_same_rf_channel_flag                   0x1fff098c   Data           0  bb_rom_sym_m0.txt ABSOLUTE
    g_currentPeerAddrType                    0x1fff098d   Data           0  bb_rom_sym_m0.txt ABSOLUTE
    g_currentLocalAddrType                   0x1fff098e   Data           0  bb_rom_sym_m0.txt ABSOLUTE
    storeRpaListIndex                        0x1fff098f   Data           0  bb_rom_sym_m0.txt ABSOLUTE
    llTaskState                              0x1fff0990   Data           0  bb_rom_sym_m0.txt ABSOLUTE
    g_adv_taskEvent                          0x1fff0992   Data           0  bb_rom_sym_m0.txt ABSOLUTE
    g_conn_taskEvent                         0x1fff0994   Data           0  bb_rom_sym_m0.txt ABSOLUTE
    llWaitingIrq                             0x1fff0998   Data           0  bb_rom_sym_m0.txt ABSOLUTE
    ISR_entry_time                           0x1fff099c   Data           0  bb_rom_sym_m0.txt ABSOLUTE
    slave_conn_event_recv_delay              0x1fff09a0   Data           0  bb_rom_sym_m0.txt ABSOLUTE
    g_smartWindowLater                       0x1fff09a4   Data           0  bb_rom_sym_m0.txt ABSOLUTE
    g_smartWindowActiveCnt                   0x1fff09a8   Data           0  bb_rom_sym_m0.txt ABSOLUTE
    g_smartWindowPreAnchPoint                0x1fff09ac   Data           0  bb_rom_sym_m0.txt ABSOLUTE
    g_getPn23_cnt                            0x1fff09b0   Data           0  bb_rom_sym_m0.txt ABSOLUTE
    g_getPn23_seed                           0x1fff09b4   Data           0  bb_rom_sym_m0.txt ABSOLUTE
    llScanTime                               0x1fff09b8   Data           0  bb_rom_sym_m0.txt ABSOLUTE
    p_perStatsByChan                         0x1fff09bc   Data           0  bb_rom_sym_m0.txt ABSOLUTE
    LL_PLUS_AdvDataFilterCBack               0x1fff09c0   Data           0  bb_rom_sym_m0.txt ABSOLUTE
    LL_PLUS_ScanRequestFilterCBack           0x1fff09c4   Data           0  bb_rom_sym_m0.txt ABSOLUTE
    g_new_master_delta                       0x1fff09c8   Data           0  bb_rom_sym_m0.txt ABSOLUTE
    llScanT1                                 0x1fff09cc   Data           0  bb_rom_sym_m0.txt ABSOLUTE
    llCurrentScanChn                         0x1fff09d0   Data           0  bb_rom_sym_m0.txt ABSOLUTE
    g_currentLocalRpa                        0x1fff09d4   Data           0  bb_rom_sym_m0.txt ABSOLUTE
    g_currentPeerRpa                         0x1fff09da   Data           0  bb_rom_sym_m0.txt ABSOLUTE
    currentPeerRpa                           0x1fff09e0   Data           0  bb_rom_sym_m0.txt ABSOLUTE
    g_dle_taskID                             0x1fff09e6   Data           0  bb_rom_sym_m0.txt ABSOLUTE
    g_dle_taskEvent                          0x1fff09e8   Data           0  bb_rom_sym_m0.txt ABSOLUTE
    g_phyChg_taskID                          0x1fff09ea   Data           0  bb_rom_sym_m0.txt ABSOLUTE
    g_phyChg_taskEvent                       0x1fff09ec   Data           0  bb_rom_sym_m0.txt ABSOLUTE
    g_smartWindowSize                        0x1fff09f0   Data           0  bb_rom_sym_m0.txt ABSOLUTE
    g_smartWindowSizeNew                     0x1fff09f4   Data           0  bb_rom_sym_m0.txt ABSOLUTE
    g_smartWindowActive                      0x1fff09f8   Data           0  bb_rom_sym_m0.txt ABSOLUTE
    g_interAuxPduDuration                    0x1fff09fc   Data           0  bb_rom_sym_m0.txt ABSOLUTE
    connUpdateTimer                          0x1fff0a04   Data           0  bb_rom_sym_m0.txt ABSOLUTE
    sleep_flag                               0x1fff0a0c   Data           0  bb_rom_sym_m0.txt ABSOLUTE
    g_wakeup_rtc_tick                        0x1fff0a10   Data           0  bb_rom_sym_m0.txt ABSOLUTE
    g_counter_traking_avg                    0x1fff0a14   Data           0  bb_rom_sym_m0.txt ABSOLUTE
    g_TIM2_IRQ_TIM3_CurrCount                0x1fff0a18   Data           0  bb_rom_sym_m0.txt ABSOLUTE
    g_TIM2_IRQ_to_Sleep_DeltTick             0x1fff0a1c   Data           0  bb_rom_sym_m0.txt ABSOLUTE
    g_TIM2_IRQ_PendingTick                   0x1fff0a20   Data           0  bb_rom_sym_m0.txt ABSOLUTE
    g_osal_tick_trim                         0x1fff0a24   Data           0  bb_rom_sym_m0.txt ABSOLUTE
    g_osalTickTrim_mod                       0x1fff0a28   Data           0  bb_rom_sym_m0.txt ABSOLUTE
    rtc_mod_value                            0x1fff0a2c   Data           0  bb_rom_sym_m0.txt ABSOLUTE
    g_counter_traking_cnt                    0x1fff0a30   Data           0  bb_rom_sym_m0.txt ABSOLUTE
    sleep_tick                               0x1fff0a34   Data           0  bb_rom_sym_m0.txt ABSOLUTE
    counter_tracking                         0x1fff0a38   Data           0  bb_rom_sym_m0.txt ABSOLUTE
    forever_write                            0x1fff0a3c   Data           0  bb_rom_sym_m0.txt ABSOLUTE
    g_TIM2_wakeup_delay                      0x1fff0a40   Data           0  bb_rom_sym_m0.txt ABSOLUTE
    g_rfPhyTpCal0                            0x1fff0a44   Data           0  bb_rom_sym_m0.txt ABSOLUTE
    g_rfPhyTpCal1                            0x1fff0a45   Data           0  bb_rom_sym_m0.txt ABSOLUTE
    g_rfPhyTpCal0_2Mbps                      0x1fff0a46   Data           0  bb_rom_sym_m0.txt ABSOLUTE
    g_rfPhyTpCal1_2Mbps                      0x1fff0a47   Data           0  bb_rom_sym_m0.txt ABSOLUTE
    g_rfPhyTxPower                           0x1fff0a48   Data           0  bb_rom_sym_m0.txt ABSOLUTE
    g_rfPhyPktFmt                            0x1fff0a49   Data           0  bb_rom_sym_m0.txt ABSOLUTE
    g_system_clk                             0x1fff0a4a   Data           0  bb_rom_sym_m0.txt ABSOLUTE
    g_rfPhyClkSel                            0x1fff0a4b   Data           0  bb_rom_sym_m0.txt ABSOLUTE
    g_rxAdcClkSel                            0x1fff0a4c   Data           0  bb_rom_sym_m0.txt ABSOLUTE
    g_dtmModeType                            0x1fff0a4d   Data           0  bb_rom_sym_m0.txt ABSOLUTE
    g_dtmLength                              0x1fff0a4e   Data           0  bb_rom_sym_m0.txt ABSOLUTE
    g_dtmExtLen                              0x1fff0a4f   Data           0  bb_rom_sym_m0.txt ABSOLUTE
    g_dtmPKT                                 0x1fff0a50   Data           0  bb_rom_sym_m0.txt ABSOLUTE
    g_dtmTxPower                             0x1fff0a51   Data           0  bb_rom_sym_m0.txt ABSOLUTE
    g_dtmRssi                                0x1fff0a52   Data           0  bb_rom_sym_m0.txt ABSOLUTE
    g_dtmCarrSens                            0x1fff0a53   Data           0  bb_rom_sym_m0.txt ABSOLUTE
    g_dtmPktIntv                             0x1fff0a54   Data           0  bb_rom_sym_m0.txt ABSOLUTE
    g_dtmPktCount                            0x1fff0a56   Data           0  bb_rom_sym_m0.txt ABSOLUTE
    g_dtmRxCrcNum                            0x1fff0a58   Data           0  bb_rom_sym_m0.txt ABSOLUTE
    g_dtmRxTONum                             0x1fff0a5a   Data           0  bb_rom_sym_m0.txt ABSOLUTE
    g_dtmRsp                                 0x1fff0a5c   Data           0  bb_rom_sym_m0.txt ABSOLUTE
    g_dtmFoff                                0x1fff0a5e   Data           0  bb_rom_sym_m0.txt ABSOLUTE
    g_rfPhyRxDcIQ                            0x1fff0a60   Data           0  bb_rom_sym_m0.txt ABSOLUTE
    g_dtmTick                                0x1fff0a64   Data           0  bb_rom_sym_m0.txt ABSOLUTE
    g_rfPhyFreqOffSet                        0x1fff0a68   Data           0  bb_rom_sym_m0.txt ABSOLUTE
    g_rfPhyDtmCmd                            0x1fff0a69   Data           0  bb_rom_sym_m0.txt ABSOLUTE
    g_rfPhyDtmEvt                            0x1fff0a6b   Data           0  bb_rom_sym_m0.txt ABSOLUTE
    g_dtmCmd                                 0x1fff0a6d   Data           0  bb_rom_sym_m0.txt ABSOLUTE
    g_dtmFreq                                0x1fff0a6e   Data           0  bb_rom_sym_m0.txt ABSOLUTE
    g_dtmCtrl                                0x1fff0a6f   Data           0  bb_rom_sym_m0.txt ABSOLUTE
    g_dtmPara                                0x1fff0a70   Data           0  bb_rom_sym_m0.txt ABSOLUTE
    g_dtmEvt                                 0x1fff0a71   Data           0  bb_rom_sym_m0.txt ABSOLUTE
    g_dtmStatus                              0x1fff0a72   Data           0  bb_rom_sym_m0.txt ABSOLUTE
    g_dtmTpCalEnable                         0x1fff0a73   Data           0  bb_rom_sym_m0.txt ABSOLUTE
    g_dtmPerAutoIntv                         0x1fff0a74   Data           0  bb_rom_sym_m0.txt ABSOLUTE
    g_dtmAccessCode                          0x1fff0a78   Data           0  bb_rom_sym_m0.txt ABSOLUTE
    g_system_reset_cause                     0x1fff0a80   Data           0  bb_rom_sym_m0.txt ABSOLUTE
    cbTimers                                 0x1fff0afc   Data           0  bb_rom_sym_m0.txt ABSOLUTE
    g_llSleepContext                         0x1fff0b74   Data           0  bb_rom_sym_m0.txt ABSOLUTE
    syncInfo                                 0x1fff0b84   Data           0  bb_rom_sym_m0.txt ABSOLUTE
    scanSyncInfo                             0x1fff0b96   Data           0  bb_rom_sym_m0.txt ABSOLUTE
    adv_param                                0x1fff0ba6   Data           0  bb_rom_sym_m0.txt ABSOLUTE
    scanInfo                                 0x1fff0bbc   Data           0  bb_rom_sym_m0.txt ABSOLUTE
    initInfo                                 0x1fff0bd4   Data           0  bb_rom_sym_m0.txt ABSOLUTE
    extScanInfo                              0x1fff0be8   Data           0  bb_rom_sym_m0.txt ABSOLUTE
    extInitInfo                              0x1fff0c10   Data           0  bb_rom_sym_m0.txt ABSOLUTE
    g_llPeriodAdvSyncInfo                    0x1fff0c50   Data           0  bb_rom_sym_m0.txt ABSOLUTE
    g_ll_conn_ctx                            0x1fff0d30   Data           0  bb_rom_sym_m0.txt ABSOLUTE
    deviceFeatureSet                         0x1fff0e48   Data           0  bb_rom_sym_m0.txt ABSOLUTE
    g_llWhitelist                            0x1fff0e51   Data           0  bb_rom_sym_m0.txt ABSOLUTE
    g_llResolvinglist                        0x1fff0e89   Data           0  bb_rom_sym_m0.txt ABSOLUTE
    g_pmCounters                             0x1fff0ffc   Data           0  bb_rom_sym_m0.txt ABSOLUTE
    g_llPduLen                               0x1fff1084   Data           0  bb_rom_sym_m0.txt ABSOLUTE
    rfCounters                               0x1fff10e0   Data           0  bb_rom_sym_m0.txt ABSOLUTE
    ext_adv_hdr                              0x1fff10ec   Data           0  bb_rom_sym_m0.txt ABSOLUTE
    dataPkt                                  0x1fff1118   Data           0  bb_rom_sym_m0.txt ABSOLUTE
    cachedTRNGdata                           0x1fff1138   Data           0  bb_rom_sym_m0.txt ABSOLUTE
    whiten_seed                              0x1fff1144   Data           0  bb_rom_sym_m0.txt ABSOLUTE
    g_tx_adv_buf                             0x1fff116c   Data           0  bb_rom_sym_m0.txt ABSOLUTE
    g_tx_ext_adv_buf                         0x1fff1278   Data           0  bb_rom_sym_m0.txt ABSOLUTE
    tx_scanRsp_desc                          0x1fff1384   Data           0  bb_rom_sym_m0.txt ABSOLUTE
    g_rx_adv_buf                             0x1fff1490   Data           0  bb_rom_sym_m0.txt ABSOLUTE
    __Vectors                                0x1fff1838   Data           4  startup_armcm0.o(RESET)
    __Vectors_End                            0x1fff1840   Data           0  startup_armcm0.o(RESET)
    __main                                   0x1fff1841   Thumb Code     0  entry.o(.ARM.Collect$$$$00000000)
    _main_stk                                0x1fff1841   Thumb Code     0  entry2.o(.ARM.Collect$$$$00000001)
    _main_scatterload                        0x1fff1845   Thumb Code     0  entry5.o(.ARM.Collect$$$$00000004)
    __main_after_scatterload                 0x1fff1849   Thumb Code     0  entry5.o(.ARM.Collect$$$$00000004)
    _main_clock                              0x1fff1849   Thumb Code     0  entry7b.o(.ARM.Collect$$$$00000008)
    _main_cpp_init                           0x1fff1849   Thumb Code     0  entry8b.o(.ARM.Collect$$$$0000000A)
    _main_init                               0x1fff1849   Thumb Code     0  entry9a.o(.ARM.Collect$$$$0000000B)
    __rt_final_cpp                           0x1fff1851   Thumb Code     0  entry10a.o(.ARM.Collect$$$$0000000D)
    __rt_final_exit                          0x1fff1851   Thumb Code     0  entry11a.o(.ARM.Collect$$$$0000000F)
    Reset_Handler                            0x1fff1855   Thumb Code     8  startup_armcm0.o(.text)
    strstr                                   0x1fff1869   Thumb Code    40  strstr.o(.text)
    __scatterload                            0x1fff1891   Thumb Code    28  init.o(.text)
    __scatterload_rt2                        0x1fff1891   Thumb Code     0  init.o(.text)
    __decompress                             0x1fff18b5   Thumb Code     0  __dczerorl.o(.text)
    __decompress0                            0x1fff18b5   Thumb Code    58  __dczerorl.o(.text)
    SystemInit                               0x1fff18f1   Thumb Code     8  system_armcm0.o(.text.SystemInit)
    app_main                                 0x1fff19c1   Thumb Code    20  findmy_main.o(.text.app_main)
    gpio_key_timer_handler                   0x1fff1dc5   Thumb Code   204  key.o(.text.gpio_key_timer_handler)
    hal_TIMER5_IRQHandler                    0x1fff1ea1   Thumb Code    28  timer.o(.text.hal_TIMER5_IRQHandler)
    hal_TIMER6_IRQHandler                    0x1fff1ec1   Thumb Code    28  timer.o(.text.hal_TIMER6_IRQHandler)
    hal_clk_gate_disable                     0x1fff1ee5   Thumb Code    60  clock.o(.text.hal_clk_gate_disable)
    hal_clk_gate_enable                      0x1fff1f21   Thumb Code    60  clock.o(.text.hal_clk_gate_enable)
    hal_flash_read                           0x1fff1f61   Thumb Code   316  flash.o(.text.hal_flash_read)
    hal_flash_write                          0x1fff20a5   Thumb Code   328  flash.o(.text.hal_flash_write)
    hal_fs_init                              0x1fff2205   Thumb Code    36  fs.o(.text.hal_fs_init)
    hal_get_flash_info                       0x1fff222d   Thumb Code   360  flash.o(.text.hal_get_flash_info)
    hal_pwrmgr_RAM_retention                 0x1fff23b1   Thumb Code    36  pwrmgr.o(.text.hal_pwrmgr_RAM_retention)
    hal_pwrmgr_RAM_retention_set             0x1fff23d5   Thumb Code    24  pwrmgr.o(.text.hal_pwrmgr_RAM_retention_set)
    hal_pwrmgr_init                          0x1fff23ed   Thumb Code    32  pwrmgr.o(.text.hal_pwrmgr_init)
    hal_pwrmgr_lock                          0x1fff2419   Thumb Code   188  pwrmgr.o(.text.hal_pwrmgr_lock)
    hal_pwrmgr_register                      0x1fff24d5   Thumb Code   208  pwrmgr.o(.text.hal_pwrmgr_register)
    hal_pwrmgr_sleep_process                 0x1fff25a5   Thumb Code   184  pwrmgr.o(.text.hal_pwrmgr_sleep_process)
    hal_pwrmgr_unlock                        0x1fff2665   Thumb Code   300  pwrmgr.o(.text.hal_pwrmgr_unlock)
    hal_pwrmgr_wakeup_process                0x1fff2795   Thumb Code   244  pwrmgr.o(.text.hal_pwrmgr_wakeup_process)
    hal_rc32k_clk_tracking_init              0x1fff289d   Thumb Code    20  clock.o(.text.hal_rc32k_clk_tracking_init)
    hal_rtc_clock_config                     0x1fff28c1   Thumb Code   112  clock.o(.text.hal_rtc_clock_config)
    hal_spif_cache_init                      0x1fff293d   Thumb Code    28  flash.o(.text.hal_spif_cache_init)
    hard_fault                               0x1fff295d   Thumb Code    48  jump_table.o(.text.hard_fault)
    key_init                                 0x1fff2ac9   Thumb Code    48  key.o(.text.key_init)
    main                                     0x1fff2afd   Thumb Code   364  main.o(.text.main)
    osalInitTasks                            0x1fff2c99   Thumb Code    64  osal_findmy.o(.text.osalInitTasks)
    watchdog_config                          0x1fff2d75   Thumb Code   136  watchdog.o(.text.watchdog_config)
    Long Thumb to Thumb Veneer to spif_cmd   0x1fff2e1d   Thumb Code    12  anon$$obj.o(Veneer$$Code)
    Long Thumb to Thumb Veneer to spif_rddata 0x1fff2e29   Thumb Code    12  anon$$obj.o(Veneer$$Code)
    Long Thumb to Thumb Veneer to WaitRTCCount 0x1fff2e35   Thumb Code    12  anon$$obj.o(Veneer$$Code)
    Long Thumb to Thumb Veneer to osal_init_system 0x1fff2e41   Thumb Code    12  anon$$obj.o(Veneer$$Code)
    Long Thumb to Thumb Veneer to osal_pwrmgr_device 0x1fff2e4d   Thumb Code    12  anon$$obj.o(Veneer$$Code)
    Long Thumb to Thumb Veneer to osal_start_system 0x1fff2e59   Thumb Code    12  anon$$obj.o(Veneer$$Code)
    Long Thumb to Thumb Veneer to osal_memset 0x1fff2e65   Thumb Code    12  anon$$obj.o(Veneer$$Code)
    Long Thumb to Thumb Veneer to __aeabi_uidivmod 0x1fff2e71   Thumb Code    12  anon$$obj.o(Veneer$$Code)
    Long Thumb to Thumb Veneer to hal_gpio_read 0x1fff2e7d   Thumb Code    12  anon$$obj.o(Veneer$$Code)
    Long Thumb to Thumb Veneer to osal_stop_timerEx 0x1fff2e89   Thumb Code    12  anon$$obj.o(Veneer$$Code)
    Long Thumb to Thumb Veneer to getMcuPrecisionCount 0x1fff2e95   Thumb Code    12  anon$$obj.o(Veneer$$Code)
    Long Thumb to Thumb Veneer to osal_start_timerEx 0x1fff2ea1   Thumb Code    12  anon$$obj.o(Veneer$$Code)
    Long Thumb to Thumb Veneer to drv_disable_irq 0x1fff2ead   Thumb Code    12  anon$$obj.o(Veneer$$Code)
    Long Thumb to Thumb Veneer to drv_enable_irq 0x1fff2eb9   Thumb Code    12  anon$$obj.o(Veneer$$Code)
    Long Thumb to Thumb Veneer to spif_write 0x1fff2ec5   Thumb Code    12  anon$$obj.o(Veneer$$Code)
    Long Thumb to Thumb Veneer to __aeabi_memclr4 0x1fff2ed1   Thumb Code    12  anon$$obj.o(Veneer$$Code)
    Long Thumb to Thumb Veneer to enableSleep 0x1fff2edd   Thumb Code    12  anon$$obj.o(Veneer$$Code)
    Long Thumb to Thumb Veneer to disableSleep 0x1fff2ee9   Thumb Code    12  anon$$obj.o(Veneer$$Code)
    Long Thumb to Thumb Veneer to hal_gpio_pull_set 0x1fff2ef5   Thumb Code    12  anon$$obj.o(Veneer$$Code)
    Long Thumb to Thumb Veneer to log_printf 0x1fff2f01   Thumb Code    12  anon$$obj.o(Veneer$$Code)
    Long Thumb to Thumb Veneer to spif_config 0x1fff2f0d   Thumb Code    12  anon$$obj.o(Veneer$$Code)
    Long Thumb to Thumb Veneer to hal_gpioin_register 0x1fff2f19   Thumb Code    12  anon$$obj.o(Veneer$$Code)
    Long Thumb to Thumb Veneer to drv_irq_init 0x1fff2f25   Thumb Code    12  anon$$obj.o(Veneer$$Code)
    Long Thumb to Thumb Veneer to init_config 0x1fff2f31   Thumb Code    12  anon$$obj.o(Veneer$$Code)
    Long Thumb to Thumb Veneer to osal_mem_set_heap 0x1fff2f3d   Thumb Code    12  anon$$obj.o(Veneer$$Code)
    Long Thumb to Thumb Veneer to LL_InitConnectContext 0x1fff2f49   Thumb Code    12  anon$$obj.o(Veneer$$Code)
    Long Thumb to Thumb Veneer to clk_init   0x1fff2f55   Thumb Code    12  anon$$obj.o(Veneer$$Code)
    Long Thumb to Thumb Veneer to hal_gpio_init 0x1fff2f61   Thumb Code    12  anon$$obj.o(Veneer$$Code)
    Long Thumb to Thumb Veneer to hal_pwm_module_init 0x1fff2f6d   Thumb Code    12  anon$$obj.o(Veneer$$Code)
    Long Thumb to Thumb Veneer to osal_mem_alloc 0x1fff2f79   Thumb Code    12  anon$$obj.o(Veneer$$Code)
    Long Thumb to Thumb Veneer to LL_Init    0x1fff2f85   Thumb Code    12  anon$$obj.o(Veneer$$Code)
    Long Thumb to Thumb Veneer to HCI_Init   0x1fff2f91   Thumb Code    12  anon$$obj.o(Veneer$$Code)
    Long Thumb to Thumb Veneer to osal_CbTimerInit 0x1fff2f9d   Thumb Code    12  anon$$obj.o(Veneer$$Code)
    Long Thumb to Thumb Veneer to GAP_Init   0x1fff2fa9   Thumb Code    12  anon$$obj.o(Veneer$$Code)
    Long Thumb to Thumb Veneer to GAPMultiRole_Init 0x1fff2fb5   Thumb Code    12  anon$$obj.o(Veneer$$Code)
    Long Thumb to Thumb Veneer to FindMy_Init 0x1fff2fc1   Thumb Code    12  anon$$obj.o(Veneer$$Code)
    Long Thumb to Thumb Veneer to osal_pwrmgr_powerconserve0 0x1fff2fcd   Thumb Code    12  anon$$obj.o(Veneer$$Code)
    Long Thumb to Thumb Veneer to config_RTC 0x1fff2fd9   Thumb Code    12  anon$$obj.o(Veneer$$Code)
    Long Thumb to Thumb Veneer to enter_sleep_off_mode 0x1fff2fe5   Thumb Code    12  anon$$obj.o(Veneer$$Code)
    Long Thumb to Thumb Veneer to HCI_SendDataPkt 0x1fff2ff1   Thumb Code    12  anon$$obj.o(Veneer$$Code)
    Long Thumb to Thumb Veneer to HCI_CommandStatusEvent 0x1fff2ffd   Thumb Code    12  anon$$obj.o(Veneer$$Code)
    Long Thumb to Thumb Veneer to LL_ConnActive 0x1fff3009   Thumb Code    12  anon$$obj.o(Veneer$$Code)
    Long Thumb to Thumb Veneer to llEnqueueCtrlPkt 0x1fff3015   Thumb Code    12  anon$$obj.o(Veneer$$Code)
    Long Thumb to Thumb Veneer to LL_ENC_AES128_Encrypt0 0x1fff3021   Thumb Code    12  anon$$obj.o(Veneer$$Code)
    Long Thumb to Thumb Veneer to LL_ENC_LoadKey 0x1fff302d   Thumb Code    12  anon$$obj.o(Veneer$$Code)
    Long Thumb to Thumb Veneer to LL_ENC_GenerateNonce 0x1fff3039   Thumb Code    12  anon$$obj.o(Veneer$$Code)
    Long Thumb to Thumb Veneer to __aeabi_uread4 0x1fff3045   Thumb Code    12  anon$$obj.o(Veneer$$Code)
    Long Thumb to Thumb Veneer to read_current_fine_time 0x1fff3051   Thumb Code    12  anon$$obj.o(Veneer$$Code)
    Long Thumb to Thumb Veneer to ll_debug_output 0x1fff305d   Thumb Code    12  anon$$obj.o(Veneer$$Code)
    Long Thumb to Thumb Veneer to ll_hw_get_irq_status 0x1fff3069   Thumb Code    12  anon$$obj.o(Veneer$$Code)
    Long Thumb to Thumb Veneer to ll_hw_get_tr_mode 0x1fff3075   Thumb Code    12  anon$$obj.o(Veneer$$Code)
    Long Thumb to Thumb Veneer to ll_hw_clr_irq 0x1fff3081   Thumb Code    12  anon$$obj.o(Veneer$$Code)
    Long Thumb to Thumb Veneer to ll_processExtAdvIRQ 0x1fff308d   Thumb Code    12  anon$$obj.o(Veneer$$Code)
    Long Thumb to Thumb Veneer to ll_processExtScanIRQ 0x1fff3099   Thumb Code    12  anon$$obj.o(Veneer$$Code)
    Long Thumb to Thumb Veneer to ll_processExtInitIRQ 0x1fff30a5   Thumb Code    12  anon$$obj.o(Veneer$$Code)
    Long Thumb to Thumb Veneer to ll_processPrdAdvIRQ 0x1fff30b1   Thumb Code    12  anon$$obj.o(Veneer$$Code)
    Long Thumb to Thumb Veneer to ll_processPrdScanIRQ 0x1fff30bd   Thumb Code    12  anon$$obj.o(Veneer$$Code)
    Long Thumb to Thumb Veneer to ll_processBasicIRQ 0x1fff30c9   Thumb Code    12  anon$$obj.o(Veneer$$Code)
    Long Thumb to Thumb Veneer to ll_schedule_next_event 0x1fff30d5   Thumb Code    12  anon$$obj.o(Veneer$$Code)
    Long Thumb to Thumb Veneer to llSecAdvAllow 0x1fff30e1   Thumb Code    12  anon$$obj.o(Veneer$$Code)
    Long Thumb to Thumb Veneer to llSetupSecAdvEvt 0x1fff30ed   Thumb Code    12  anon$$obj.o(Veneer$$Code)
    Long Thumb to Thumb Veneer to ll_hw_set_rx_timeout 0x1fff30f9   Thumb Code    12  anon$$obj.o(Veneer$$Code)
    Long Thumb to Thumb Veneer to llSetupSecScan 0x1fff3105   Thumb Code    12  anon$$obj.o(Veneer$$Code)
    Long Thumb to Thumb Veneer to llSetupSecInit 0x1fff3111   Thumb Code    12  anon$$obj.o(Veneer$$Code)
    Long Thumb to Thumb Veneer to __ARM_common_switch8 0x1fff311d   Thumb Code    12  anon$$obj.o(Veneer$$Code)
    Long Thumb to Thumb Veneer to llSetupAdv 0x1fff3129   Thumb Code    12  anon$$obj.o(Veneer$$Code)
    Long Thumb to Thumb Veneer to osal_set_event 0x1fff3135   Thumb Code    12  anon$$obj.o(Veneer$$Code)
    Long Thumb to Thumb Veneer to clear_timer 0x1fff3141   Thumb Code    12  anon$$obj.o(Veneer$$Code)
    Long Thumb to Thumb Veneer to LL_SetAdvParam0 0x1fff314d   Thumb Code    12  anon$$obj.o(Veneer$$Code)
    Long Thumb to Thumb Veneer to LL_SetDataLengh0 0x1fff3159   Thumb Code    12  anon$$obj.o(Veneer$$Code)
    Long Thumb to Thumb Veneer to LL_set_default_conn_params0 0x1fff3165   Thumb Code    12  anon$$obj.o(Veneer$$Code)
    Long Thumb to Thumb Veneer to efuse_read 0x1fff3171   Thumb Code    12  anon$$obj.o(Veneer$$Code)
    Long Thumb to Thumb Veneer to rtc_get_counter 0x1fff317d   Thumb Code    12  anon$$obj.o(Veneer$$Code)
    Long Thumb to Thumb Veneer to set_sleep_flag 0x1fff3189   Thumb Code    12  anon$$obj.o(Veneer$$Code)
    Long Thumb to Thumb Veneer to read_LL_remainder_time 0x1fff3195   Thumb Code    12  anon$$obj.o(Veneer$$Code)
    Long Thumb to Thumb Veneer to enterSleepProcess0 0x1fff31a1   Thumb Code    12  anon$$obj.o(Veneer$$Code)
    Long Thumb to Thumb Veneer to osal_memcmp 0x1fff31ad   Thumb Code    12  anon$$obj.o(Veneer$$Code)
    Long Thumb to Thumb Veneer to llConnTerminate0 0x1fff31b9   Thumb Code    12  anon$$obj.o(Veneer$$Code)
    Long Thumb to Thumb Veneer to llProcessChanMap 0x1fff31c5   Thumb Code    12  anon$$obj.o(Veneer$$Code)
    Long Thumb to Thumb Veneer to llProcessTxData0 0x1fff31d1   Thumb Code    12  anon$$obj.o(Veneer$$Code)
    Long Thumb to Thumb Veneer to llSetupNextSlaveEvent0 0x1fff31dd   Thumb Code    12  anon$$obj.o(Veneer$$Code)
    Long Thumb to Thumb Veneer to llSetupSecConnectableAdvEvt 0x1fff31e9   Thumb Code    12  anon$$obj.o(Veneer$$Code)
    Long Thumb to Thumb Veneer to llSetupSecNonConnectableAdvEvt 0x1fff31f5   Thumb Code    12  anon$$obj.o(Veneer$$Code)
    Long Thumb to Thumb Veneer to llSetupSecScannableAdvEvt 0x1fff3201   Thumb Code    12  anon$$obj.o(Veneer$$Code)
    Long Thumb to Thumb Veneer to ll_hw_get_loop_cycle 0x1fff320d   Thumb Code    12  anon$$obj.o(Veneer$$Code)
    Long Thumb to Thumb Veneer to ll_hw_get_anchor 0x1fff3219   Thumb Code    12  anon$$obj.o(Veneer$$Code)
    Long Thumb to Thumb Veneer to ll_hw_write_tfifo 0x1fff3225   Thumb Code    12  anon$$obj.o(Veneer$$Code)
    Long Thumb to Thumb Veneer to ll_hw_get_tfifo_wrptr 0x1fff3231   Thumb Code    12  anon$$obj.o(Veneer$$Code)
    Long Thumb to Thumb Veneer to getTxBufferSize 0x1fff323d   Thumb Code    12  anon$$obj.o(Veneer$$Code)
    Long Thumb to Thumb Veneer to get_tx_read_ptr 0x1fff3249   Thumb Code    12  anon$$obj.o(Veneer$$Code)
    Long Thumb to Thumb Veneer to update_tx_read_ptr 0x1fff3255   Thumb Code    12  anon$$obj.o(Veneer$$Code)
    Long Thumb to Thumb Veneer to osal_memcpy 0x1fff3261   Thumb Code    12  anon$$obj.o(Veneer$$Code)
    Long Thumb to Thumb Veneer to set_max_length 0x1fff326d   Thumb Code    12  anon$$obj.o(Veneer$$Code)
    Long Thumb to Thumb Veneer to ll_scheduler0 0x1fff3279   Thumb Code    12  anon$$obj.o(Veneer$$Code)
    Long Thumb to Thumb Veneer to ll_hw_set_crc_fmt 0x1fff3285   Thumb Code    12  anon$$obj.o(Veneer$$Code)
    Long Thumb to Thumb Veneer to ll_hw_tx2rx_timing_config 0x1fff3291   Thumb Code    12  anon$$obj.o(Veneer$$Code)
    Long Thumb to Thumb Veneer to osalTimeUpdate 0x1fff329d   Thumb Code    12  anon$$obj.o(Veneer$$Code)
    Long Thumb to Thumb Veneer to set_timer  0x1fff32a9   Thumb Code    12  anon$$obj.o(Veneer$$Code)
    Long Thumb to Thumb Veneer to app_wakeup_process 0x1fff32b5   Thumb Code    12  anon$$obj.o(Veneer$$Code)
    Long Thumb to Thumb Veneer to ll_hw_set_empty_head 0x1fff32c1   Thumb Code    12  anon$$obj.o(Veneer$$Code)
    Long Thumb to Thumb Veneer to ll_hw_set_rx_timeout_1st 0x1fff32cd   Thumb Code    12  anon$$obj.o(Veneer$$Code)
    Long Thumb to Thumb Veneer to ll_hw_set_loop_timeout 0x1fff32d9   Thumb Code    12  anon$$obj.o(Veneer$$Code)
    Long Thumb to Thumb Veneer to ll_hw_set_timing 0x1fff32e5   Thumb Code    12  anon$$obj.o(Veneer$$Code)
    Long Thumb to Thumb Veneer to ll_hw_ign_rfifo 0x1fff32f1   Thumb Code    12  anon$$obj.o(Veneer$$Code)
    hal_UART0_IRQHandler                     0x1fff32fd   Thumb Code   624  uart.o(_section_sram_code_)
    hal_UART1_IRQHandler                     0x1fff3579   Thumb Code   636  uart.o(_section_sram_code_)
    hal_watchdog_init                        0x1fff3805   Thumb Code   120  watchdog.o(_section_sram_code_)
    osal_idle_task                           0x1fff3895   Thumb Code    16  pwrmgr.o(_section_sram_code_)
    hal_pwrmgr_enter_sleep_rtc_reset         0x1fff38a9   Thumb Code    52  pwrmgr.o(_section_sram_code_)
    L2CAP_Fragment_SendDataPkt               0x1fff38e5   Thumb Code    38  l2cap_util.o(_section_sram_code_)
    l2capSegmentBuffToLinkLayer              0x1fff390b   Thumb Code    90  l2cap_util.o(_section_sram_code_)
    l2capPocessFragmentTxData                0x1fff3965   Thumb Code    34  l2cap_util.o(_section_sram_code_)
    HCI_LE_ConnUpdateCmd                     0x1fff398d   Thumb Code    24  patch.o(i.HCI_LE_ConnUpdateCmd)
    LL_ConnUpdate1                           0x1fff39a9   Thumb Code   218  patch.o(i.LL_ConnUpdate1)
    LL_ENC_AES128_Encrypt1                   0x1fff3a99   Thumb Code    26  patch.o(i.LL_ENC_AES128_Encrypt1)
    LL_ENC_Decrypt1                          0x1fff3ab5   Thumb Code   364  patch.o(i.LL_ENC_Decrypt1)
    LL_ENC_Encrypt1                          0x1fff3c2d   Thumb Code   342  patch.o(i.LL_ENC_Encrypt1)
    LL_IRQHandler1                           0x1fff3d8d   Thumb Code   350  patch.o(i.LL_IRQHandler1)
    LL_SetAdvControl1                        0x1fff3f0d   Thumb Code   446  patch.o(i.LL_SetAdvControl1)
    LL_SetAdvParam1                          0x1fff40f9   Thumb Code    66  patch.o(i.LL_SetAdvParam1)
    LL_SetDataLengh1                         0x1fff4149   Thumb Code    40  patch.o(i.LL_SetDataLengh1)
    LL_set_default_conn_params1              0x1fff4179   Thumb Code    14  patch.o(i.LL_set_default_conn_params1)
    __psr                                    0x1fff41a1   Thumb Code     6  patch.o(i.__psr)
    __scatterload_copy                       0x1fff41a7   Thumb Code    14  handlers.o(i.__scatterload_copy)
    __scatterload_null                       0x1fff41b5   Thumb Code     2  handlers.o(i.__scatterload_null)
    __scatterload_zeroinit                   0x1fff41b7   Thumb Code    14  handlers.o(i.__scatterload_zeroinit)
    __wdt_init                               0x1fff41c5   Thumb Code    12  patch.o(i.__wdt_init)
    _efuse_chip_version_check                0x1fff41d5   Thumb Code    26  phy_sec_ext.o(i._efuse_chip_version_check)
    _rom_sec_boot_init                       0x1fff41f5   Thumb Code    22  phy_sec_ext.o(i._rom_sec_boot_init)
    config_RTC1                              0x1fff4475   Thumb Code   110  patch.o(i.config_RTC1)
    efuse_init                               0x1fff4505   Thumb Code    14  phy_sec_ext.o(i.efuse_init)
    enterSleepProcess1                       0x1fff451d   Thumb Code    34  patch.o(i.enterSleepProcess1)
    finidv                                   0x1fff4549   Thumb Code   126  phy_sec_ext.o(i.finidv)
    hal_rom_boot_init                        0x1fff45d5   Thumb Code     8  patch.o(i.hal_rom_boot_init)
    llCalcMaxScanTime1                       0x1fff45dd   Thumb Code    54  patch.o(i.llCalcMaxScanTime1)
    llConnTerminate1                         0x1fff461d   Thumb Code    64  patch.o(i.llConnTerminate1)
    llProcessTxData1                         0x1fff4661   Thumb Code    12  patch.o(i.llProcessTxData1)
    llSecAdvAllow1                           0x1fff466d   Thumb Code    62  patch.o(i.llSecAdvAllow1)
    llSetupNextSlaveEvent1                   0x1fff46bd   Thumb Code    30  patch.o(i.llSetupNextSlaveEvent1)
    llSetupSecAdvEvt1                        0x1fff46e9   Thumb Code   128  patch.o(i.llSetupSecAdvEvt1)
    ll_adptive_adj_next_time1                0x1fff4781   Thumb Code   154  patch.o(i.ll_adptive_adj_next_time1)
    ll_generateTxBuffer1                     0x1fff483d   Thumb Code   410  patch.o(i.ll_generateTxBuffer1)
    ll_hw_go1                                0x1fff49e9   Thumb Code   314  patch.o(i.ll_hw_go1)
    ll_patch_slave                           0x1fff4b85   Thumb Code    38  patch.o(i.ll_patch_slave)
    ll_processBasicIRQ_SRX                   0x1fff4bd1   Thumb Code    20  patch.o(i.ll_processBasicIRQ_SRX)
    ll_processBasicIRQ_ScanTRX               0x1fff4be9   Thumb Code    20  patch.o(i.ll_processBasicIRQ_ScanTRX)
    ll_processBasicIRQ_secondaryAdvTRX       0x1fff4c01   Thumb Code    20  patch.o(i.ll_processBasicIRQ_secondaryAdvTRX)
    ll_processBasicIRQ_secondaryInitSRX      0x1fff4c19   Thumb Code    20  patch.o(i.ll_processBasicIRQ_secondaryInitSRX)
    ll_processBasicIRQ_secondaryScanSRX      0x1fff4c31   Thumb Code    20  patch.o(i.ll_processBasicIRQ_secondaryScanSRX)
    ll_scheduler2                            0x1fff4c49   Thumb Code    56  patch.o(i.ll_scheduler2)
    rc32k_calibration                        0x1fff4c91   Thumb Code   112  rf_phy_driver.o(i.rc32k_calibration)
    rc32k_cap_cal                            0x1fff4d05   Thumb Code    74  patch.o(i.rc32k_cap_cal)
    rf_calibrate1                            0x1fff4d89   Thumb Code    32  rf_phy_driver.o(i.rf_calibrate1)
    rf_phy_ana_cfg                           0x1fff4db9   Thumb Code   228  rf_phy_driver.o(i.rf_phy_ana_cfg)
    rf_phy_bb_cfg                            0x1fff4ed1   Thumb Code   304  rf_phy_driver.o(i.rf_phy_bb_cfg)
    rf_phy_change_cfg0                       0x1fff5075   Thumb Code   138  rf_phy_driver.o(i.rf_phy_change_cfg0)
    rf_phy_ini                               0x1fff511d   Thumb Code    42  rf_phy_driver.o(i.rf_phy_ini)
    rf_phy_set_txPower                       0x1fff5159   Thumb Code   108  rf_phy_driver.o(i.rf_phy_set_txPower)
    rf_rxDcoc_cfg                            0x1fff51cd   Thumb Code   236  rf_phy_driver.o(i.rf_rxDcoc_cfg)
    rf_tpCal_gen_cap_arrary                  0x1fff52ed   Thumb Code    60  rf_phy_driver.o(i.rf_tpCal_gen_cap_arrary)
    rf_tp_cal                                0x1fff5339   Thumb Code   236  rf_phy_driver.o(i.rf_tp_cal)
    wakeupProcess1                           0x1fff5455   Thumb Code   392  patch.o(i.wakeupProcess1)
    wakeup_init1                             0x1fff5631   Thumb Code   270  patch.o(i.wakeup_init1)
    tasksArr                                 0x1fff57e4   Data          24  osal_findmy.o(.rodata.tasksArr)
    tasksCnt                                 0x1fff57fc   Data           1  osal_findmy.o(.rodata.tasksCnt)
    Region$$Table$$Base                      0x1fff5800   Number         0  anon$$obj.o(Region$$Table)
    CreateConn_Flag                          0x1fff5850   Data           1  patch.o(.data)
    Region$$Table$$Limit                     0x1fff5850   Number         0  anon$$obj.o(Region$$Table)
    g_lastSlaveLatency                       0x1fff5852   Data           2  patch.o(.data)
    pGlobal_config                           0x1fff5854   Data           4  patch.o(.data)
    g_t_llhwgo                               0x1fff5858   Data           4  patch.o(.data)
    g_xtal16M_tmp                            0x1fff585c   Data           4  patch.o(.data)
    g_xtal96M_temp                           0x1fff5860   Data           4  patch.o(.data)
    DLL_enable_num                           0x1fff5864   Data           4  patch.o(.data)
    tracking_cnt                             0x1fff5868   Data           4  patch.o(.data)
    sleep_total                              0x1fff586c   Data           4  patch.o(.data)
    gapAppTaskID                             0x1fff5888   Data           1  gap_configmgr.o(.data)
    gapProfileRole                           0x1fff5889   Data           1  gap_configmgr.o(.data)
    gapDeviceAddrMode                        0x1fff588a   Data           1  gap_configmgr.o(.data)
    gapAutoAdvPrivateAddrChange              0x1fff588b   Data           1  gap_configmgr.o(.data)
    gapPrivateAddrChangeTimeout              0x1fff588c   Data           2  gap_configmgr.o(.data)
    gapUnwantedTaskID                        0x1fff5900   Data           1  gap_task.o(.data)
    gapTaskID                                0x1fff5901   Data           1  gap_task.o(.data)
    pfnPeripheralCBs                         0x1fff5904   Data           4  gap_task.o(.data)
    s_company_id                             0x1fff590c   Data           4  phy_sec_ext.o(.data)
    g_ota_sec_key_valid                      0x1fff5910   Data           1  phy_sec_ext.o(.data)
    pGapDiscReq                              0x1fff5914   Data           4  gap_devmgr.o(.data)
    pGapAdvertState                          0x1fff5918   Data           4  gap_devmgr.o(.data)
    pEstLink                                 0x1fff5920   Data           4  gap_linkmgr.o(.data)
    pAuthLink                                0x1fff5924   Data           4  gap_linkmgr.o(.data)
    pfnCentralConnCBs                        0x1fff5928   Data           4  gap_linkmgr.o(.data)
    g_ATT_MTU_SIZE_MAX                       0x1fff592c   Data           2  att_util.o(.data)
    g_ATT_MAX_NUM_HANDLES_INFO               0x1fff592e   Data           2  att_util.o(.data)
    g_ATT_MAX_NUM_HANDLES                    0x1fff5930   Data           2  att_util.o(.data)
    gAttMtuSize                              0x1fff5932   Data           2  att_util.o(.data)
    l2capTaskID                              0x1fff5934   Data           1  l2cap_task.o(.data)
    s_config_swClk1                          0x1fff5938   Data           4  pwrmgr.o(.data..L_MergedGlobals)
    beepCount                                0x1fff5940   Data           4  findmy.o(.data..L_MergedGlobals)
    SystemCoreClock                          0x1fff59b0   Data           4  system_armcm0.o(.data.SystemCoreClock)
    g_wdt_cycle                              0x1fff59b4   Data           1  watchdog.o(.data.g_wdt_cycle)
    phy_flash                                0x1fff59b8   Data          12  flash.o(.data.phy_flash)
    pwroff_register_number                   0x1fff59d8   Data           1  pwrmgr.o(_section_standby_var_)
    g_ota_sec_key                            0x1fff5a1c   Data          16  phy_sec_ext.o(.bss)
    l2capFixedChannels                       0x1fff5a68   Data          16  l2cap_task.o(.bss)
    l2capChannels                            0x1fff5a78   Data          30  l2cap_task.o(.bss)
    l2capReassemblePkt                       0x1fff5a98   Data          16  l2cap_util.o(.bss)
    l2capSegmentPkt                          0x1fff5aa8   Data          92  l2cap_util.o(.bss)
    g_sarDbgCnt                              0x1fff5b04   Data          52  l2cap_util.o(.bss)
    s_gpio_wakeup_src_group1                 0x1fff5b9c   Data           4  pwrmgr.o(.bss..L_MergedGlobals.1)
    s_gpio_wakeup_src_group2                 0x1fff5ba0   Data           4  pwrmgr.o(.bss..L_MergedGlobals.1)
    findMy_TaskID                            0x1fff5ba8   Data           1  findmy.o(.bss..L_MergedGlobals.2)
    devMacData                               0x1fff5ba9   Data           6  findmy.o(.bss..L_MergedGlobals.2)
    pwmCh                                    0x1fff5bb0   Data          10  findmy.o(.bss..L_MergedGlobals.2)
    g_clk32K_config                          0x1fff5c01   Data           1  main.o(.bss.g_clk32K_config)
    g_largeHeap                              0x1fff5c04   Data        4096  main.o(.bss.g_largeHeap)
    g_pConnectionBuffer                      0x1fff6c04   Data         480  main.o(.bss.g_pConnectionBuffer)
    g_perStatsByChanTest                     0x1fff6de4   Data         444  findmy.o(.bss.g_perStatsByChanTest)
    key_state                                0x1fff6fa0   Data          20  key.o(.bss.key_state)
    pConnContext                             0x1fff7198   Data         644  main.o(.bss.pConnContext)
    tasksEvents                              0x1fff7420   Data           4  osal_findmy.o(.bss.tasksEvents)
    trap_c_callback                          0x1fff7424   Data           4  jump_table.o(.bss.trap_c_callback)
    __initial_sp                             0x1fff7828   Data           0  startup_armcm0.o(STACK)



==============================================================================

Memory Map of the image

  Image Entry point : 0x1fff1841

  Load Region LR_IROM1 (Base: 0x1fff1838, Size: 0x000041a8, Max: 0x0000e7c8, ABSOLUTE, COMPRESSED[0x000040e8])

    Execution Region ER_IROM1 (Exec base: 0x1fff1838, Load base: 0x1fff1838, Size: 0x00005ff0, Max: 0x0000e7c8, ABSOLUTE, COMPRESSED[0x000000d0])

    Exec Addr    Load Addr    Size         Type   Attr      Idx    E Section Name        Object

    0x1fff1838   0x1fff1838   0x00000008   Data   RO          545    RESET               startup_armcm0.o
    0x1fff1840   0x1fff1840   0x00000000   Code   RO         1528  * .ARM.Collect$$$$00000000  mc_p.l(entry.o)
    0x1fff1840   0x1fff1840   0x00000004   Code   RO         1533    .ARM.Collect$$$$00000001  mc_p.l(entry2.o)
    0x1fff1844   0x1fff1844   0x00000004   Code   RO         1536    .ARM.Collect$$$$00000004  mc_p.l(entry5.o)
    0x1fff1848   0x1fff1848   0x00000000   Code   RO         1538    .ARM.Collect$$$$00000008  mc_p.l(entry7b.o)
    0x1fff1848   0x1fff1848   0x00000000   Code   RO         1540    .ARM.Collect$$$$0000000A  mc_p.l(entry8b.o)
    0x1fff1848   0x1fff1848   0x00000008   Code   RO         1541    .ARM.Collect$$$$0000000B  mc_p.l(entry9a.o)
    0x1fff1850   0x1fff1850   0x00000000   Code   RO         1543    .ARM.Collect$$$$0000000D  mc_p.l(entry10a.o)
    0x1fff1850   0x1fff1850   0x00000000   Code   RO         1545    .ARM.Collect$$$$0000000F  mc_p.l(entry11a.o)
    0x1fff1850   0x1fff1850   0x00000004   Code   RO         1534    .ARM.Collect$$$$00002712  mc_p.l(entry2.o)
    0x1fff1854   0x1fff1854   0x00000014   Code   RO          546    .text               startup_armcm0.o
    0x1fff1868   0x1fff1868   0x00000028   Code   RO         1531    .text               mc_p.l(strstr.o)
    0x1fff1890   0x1fff1890   0x00000024   Code   RO         1547    .text               mc_p.l(init.o)
    0x1fff18b4   0x1fff18b4   0x0000003a   Code   RO         1557    .text               mc_p.l(__dczerorl.o)
    0x1fff18ee   COMPRESSED   0x00000002   PAD
    0x1fff18f0   0x1fff18f0   0x00000010   Code   RO          555    .text.SystemInit    system_armcm0.o
    0x1fff1900   0x1fff1900   0x000000c0   Code   RO          318    .text._spif_wait_nobusy_x  flash.o
    0x1fff19c0   0x1fff19c0   0x00000014   Code   RO          474    .text.app_main      findmy_main.o
    0x1fff19d4   0x1fff19d4   0x00000224   Code   RO          402    .text.fs_init       fs.o
    0x1fff1bf8   0x1fff1bf8   0x000001cc   Code   RO          390    .text.fs_search_items  fs.o
    0x1fff1dc4   0x1fff1dc4   0x000000dc   Code   RO          253    .text.gpio_key_timer_handler  key.o
    0x1fff1ea0   0x1fff1ea0   0x00000020   Code   RO          141    .text.hal_TIMER5_IRQHandler  timer.o
    0x1fff1ec0   0x1fff1ec0   0x00000024   Code   RO          143    .text.hal_TIMER6_IRQHandler  timer.o
    0x1fff1ee4   0x1fff1ee4   0x0000003c   Code   RO           51    .text.hal_clk_gate_disable  clock.o
    0x1fff1f20   0x1fff1f20   0x00000040   Code   RO           49    .text.hal_clk_gate_enable  clock.o
    0x1fff1f60   0x1fff1f60   0x00000144   Code   RO          324    .text.hal_flash_read  flash.o
    0x1fff20a4   0x1fff20a4   0x00000160   Code   RO          326    .text.hal_flash_write  flash.o
    0x1fff2204   0x1fff2204   0x00000028   Code   RO          406    .text.hal_fs_init   fs.o
    0x1fff222c   0x1fff222c   0x00000184   Code   RO          316    .text.hal_get_flash_info  flash.o
    0x1fff23b0   0x1fff23b0   0x00000024   Code   RO          208    .text.hal_pwrmgr_RAM_retention  pwrmgr.o
    0x1fff23d4   0x1fff23d4   0x00000018   Code   RO          206    .text.hal_pwrmgr_RAM_retention_set  pwrmgr.o
    0x1fff23ec   0x1fff23ec   0x0000002c   Code   RO          188    .text.hal_pwrmgr_init  pwrmgr.o
    0x1fff2418   0x1fff2418   0x000000bc   Code   RO          194    .text.hal_pwrmgr_lock  pwrmgr.o
    0x1fff24d4   0x1fff24d4   0x000000d0   Code   RO          198    .text.hal_pwrmgr_register  pwrmgr.o
    0x1fff25a4   0x1fff25a4   0x000000c0   Code   RO          204    .text.hal_pwrmgr_sleep_process  pwrmgr.o
    0x1fff2664   0x1fff2664   0x00000130   Code   RO          196    .text.hal_pwrmgr_unlock  pwrmgr.o
    0x1fff2794   0x1fff2794   0x00000108   Code   RO          202    .text.hal_pwrmgr_wakeup_process  pwrmgr.o
    0x1fff289c   0x1fff289c   0x00000024   Code   RO           71    .text.hal_rc32k_clk_tracking_init  clock.o
    0x1fff28c0   0x1fff28c0   0x0000007c   Code   RO           59    .text.hal_rtc_clock_config  clock.o
    0x1fff293c   0x1fff293c   0x00000020   Code   RO          320    .text.hal_spif_cache_init  flash.o
    0x1fff295c   0x1fff295c   0x0000004c   Code   RO          430    .text.hard_fault    jump_table.o
    0x1fff29a8   0x1fff29a8   0x00000120   Code   RO          322    .text.hw_spif_cache_config  flash.o
    0x1fff2ac8   0x1fff2ac8   0x00000034   Code   RO          249    .text.key_init      key.o
    0x1fff2afc   0x1fff2afc   0x0000019c   Code   RO            2    .text.main          main.o
    0x1fff2c98   0x1fff2c98   0x00000044   Code   RO          482    .text.osalInitTasks  osal_findmy.o
    0x1fff2cdc   0x1fff2cdc   0x00000098   Code   RO          251    .text.pin_event_handler  key.o
    0x1fff2d74   0x1fff2d74   0x000000a8   Code   RO          175    .text.watchdog_config  watchdog.o
    0x1fff2e1c   0x1fff2e1c   0x0000000c   Ven    RO         1559    Veneer$$Code        anon$$obj.o
    0x1fff2e28   0x1fff2e28   0x0000000c   Ven    RO         1560    Veneer$$Code        anon$$obj.o
    0x1fff2e34   0x1fff2e34   0x0000000c   Ven    RO         1561    Veneer$$Code        anon$$obj.o
    0x1fff2e40   0x1fff2e40   0x0000000c   Ven    RO         1562    Veneer$$Code        anon$$obj.o
    0x1fff2e4c   0x1fff2e4c   0x0000000c   Ven    RO         1563    Veneer$$Code        anon$$obj.o
    0x1fff2e58   0x1fff2e58   0x0000000c   Ven    RO         1564    Veneer$$Code        anon$$obj.o
    0x1fff2e64   0x1fff2e64   0x0000000c   Ven    RO         1565    Veneer$$Code        anon$$obj.o
    0x1fff2e70   0x1fff2e70   0x0000000c   Ven    RO         1566    Veneer$$Code        anon$$obj.o
    0x1fff2e7c   0x1fff2e7c   0x0000000c   Ven    RO         1567    Veneer$$Code        anon$$obj.o
    0x1fff2e88   0x1fff2e88   0x0000000c   Ven    RO         1568    Veneer$$Code        anon$$obj.o
    0x1fff2e94   0x1fff2e94   0x0000000c   Ven    RO         1569    Veneer$$Code        anon$$obj.o
    0x1fff2ea0   0x1fff2ea0   0x0000000c   Ven    RO         1570    Veneer$$Code        anon$$obj.o
    0x1fff2eac   0x1fff2eac   0x0000000c   Ven    RO         1571    Veneer$$Code        anon$$obj.o
    0x1fff2eb8   0x1fff2eb8   0x0000000c   Ven    RO         1572    Veneer$$Code        anon$$obj.o
    0x1fff2ec4   0x1fff2ec4   0x0000000c   Ven    RO         1573    Veneer$$Code        anon$$obj.o
    0x1fff2ed0   0x1fff2ed0   0x0000000c   Ven    RO         1574    Veneer$$Code        anon$$obj.o
    0x1fff2edc   0x1fff2edc   0x0000000c   Ven    RO         1575    Veneer$$Code        anon$$obj.o
    0x1fff2ee8   0x1fff2ee8   0x0000000c   Ven    RO         1576    Veneer$$Code        anon$$obj.o
    0x1fff2ef4   0x1fff2ef4   0x0000000c   Ven    RO         1577    Veneer$$Code        anon$$obj.o
    0x1fff2f00   0x1fff2f00   0x0000000c   Ven    RO         1578    Veneer$$Code        anon$$obj.o
    0x1fff2f0c   0x1fff2f0c   0x0000000c   Ven    RO         1579    Veneer$$Code        anon$$obj.o
    0x1fff2f18   0x1fff2f18   0x0000000c   Ven    RO         1580    Veneer$$Code        anon$$obj.o
    0x1fff2f24   0x1fff2f24   0x0000000c   Ven    RO         1581    Veneer$$Code        anon$$obj.o
    0x1fff2f30   0x1fff2f30   0x0000000c   Ven    RO         1582    Veneer$$Code        anon$$obj.o
    0x1fff2f3c   0x1fff2f3c   0x0000000c   Ven    RO         1583    Veneer$$Code        anon$$obj.o
    0x1fff2f48   0x1fff2f48   0x0000000c   Ven    RO         1584    Veneer$$Code        anon$$obj.o
    0x1fff2f54   0x1fff2f54   0x0000000c   Ven    RO         1585    Veneer$$Code        anon$$obj.o
    0x1fff2f60   0x1fff2f60   0x0000000c   Ven    RO         1586    Veneer$$Code        anon$$obj.o
    0x1fff2f6c   0x1fff2f6c   0x0000000c   Ven    RO         1587    Veneer$$Code        anon$$obj.o
    0x1fff2f78   0x1fff2f78   0x0000000c   Ven    RO         1588    Veneer$$Code        anon$$obj.o
    0x1fff2f84   0x1fff2f84   0x0000000c   Ven    RO         1589    Veneer$$Code        anon$$obj.o
    0x1fff2f90   0x1fff2f90   0x0000000c   Ven    RO         1590    Veneer$$Code        anon$$obj.o
    0x1fff2f9c   0x1fff2f9c   0x0000000c   Ven    RO         1591    Veneer$$Code        anon$$obj.o
    0x1fff2fa8   0x1fff2fa8   0x0000000c   Ven    RO         1592    Veneer$$Code        anon$$obj.o
    0x1fff2fb4   0x1fff2fb4   0x0000000c   Ven    RO         1593    Veneer$$Code        anon$$obj.o
    0x1fff2fc0   0x1fff2fc0   0x0000000c   Ven    RO         1594    Veneer$$Code        anon$$obj.o
    0x1fff2fcc   0x1fff2fcc   0x0000000c   Ven    RO         1595    Veneer$$Code        anon$$obj.o
    0x1fff2fd8   0x1fff2fd8   0x0000000c   Ven    RO         1596    Veneer$$Code        anon$$obj.o
    0x1fff2fe4   0x1fff2fe4   0x0000000c   Ven    RO         1597    Veneer$$Code        anon$$obj.o
    0x1fff2ff0   0x1fff2ff0   0x0000000c   Ven    RO         1598    Veneer$$Code        anon$$obj.o
    0x1fff2ffc   0x1fff2ffc   0x0000000c   Ven    RO         1599    Veneer$$Code        anon$$obj.o
    0x1fff3008   0x1fff3008   0x0000000c   Ven    RO         1600    Veneer$$Code        anon$$obj.o
    0x1fff3014   0x1fff3014   0x0000000c   Ven    RO         1601    Veneer$$Code        anon$$obj.o
    0x1fff3020   0x1fff3020   0x0000000c   Ven    RO         1602    Veneer$$Code        anon$$obj.o
    0x1fff302c   0x1fff302c   0x0000000c   Ven    RO         1603    Veneer$$Code        anon$$obj.o
    0x1fff3038   0x1fff3038   0x0000000c   Ven    RO         1604    Veneer$$Code        anon$$obj.o
    0x1fff3044   0x1fff3044   0x0000000c   Ven    RO         1605    Veneer$$Code        anon$$obj.o
    0x1fff3050   0x1fff3050   0x0000000c   Ven    RO         1606    Veneer$$Code        anon$$obj.o
    0x1fff305c   0x1fff305c   0x0000000c   Ven    RO         1607    Veneer$$Code        anon$$obj.o
    0x1fff3068   0x1fff3068   0x0000000c   Ven    RO         1608    Veneer$$Code        anon$$obj.o
    0x1fff3074   0x1fff3074   0x0000000c   Ven    RO         1609    Veneer$$Code        anon$$obj.o
    0x1fff3080   0x1fff3080   0x0000000c   Ven    RO         1610    Veneer$$Code        anon$$obj.o
    0x1fff308c   0x1fff308c   0x0000000c   Ven    RO         1611    Veneer$$Code        anon$$obj.o
    0x1fff3098   0x1fff3098   0x0000000c   Ven    RO         1612    Veneer$$Code        anon$$obj.o
    0x1fff30a4   0x1fff30a4   0x0000000c   Ven    RO         1613    Veneer$$Code        anon$$obj.o
    0x1fff30b0   0x1fff30b0   0x0000000c   Ven    RO         1614    Veneer$$Code        anon$$obj.o
    0x1fff30bc   0x1fff30bc   0x0000000c   Ven    RO         1615    Veneer$$Code        anon$$obj.o
    0x1fff30c8   0x1fff30c8   0x0000000c   Ven    RO         1616    Veneer$$Code        anon$$obj.o
    0x1fff30d4   0x1fff30d4   0x0000000c   Ven    RO         1617    Veneer$$Code        anon$$obj.o
    0x1fff30e0   0x1fff30e0   0x0000000c   Ven    RO         1618    Veneer$$Code        anon$$obj.o
    0x1fff30ec   0x1fff30ec   0x0000000c   Ven    RO         1619    Veneer$$Code        anon$$obj.o
    0x1fff30f8   0x1fff30f8   0x0000000c   Ven    RO         1620    Veneer$$Code        anon$$obj.o
    0x1fff3104   0x1fff3104   0x0000000c   Ven    RO         1621    Veneer$$Code        anon$$obj.o
    0x1fff3110   0x1fff3110   0x0000000c   Ven    RO         1622    Veneer$$Code        anon$$obj.o
    0x1fff311c   0x1fff311c   0x0000000c   Ven    RO         1623    Veneer$$Code        anon$$obj.o
    0x1fff3128   0x1fff3128   0x0000000c   Ven    RO         1624    Veneer$$Code        anon$$obj.o
    0x1fff3134   0x1fff3134   0x0000000c   Ven    RO         1625    Veneer$$Code        anon$$obj.o
    0x1fff3140   0x1fff3140   0x0000000c   Ven    RO         1626    Veneer$$Code        anon$$obj.o
    0x1fff314c   0x1fff314c   0x0000000c   Ven    RO         1627    Veneer$$Code        anon$$obj.o
    0x1fff3158   0x1fff3158   0x0000000c   Ven    RO         1628    Veneer$$Code        anon$$obj.o
    0x1fff3164   0x1fff3164   0x0000000c   Ven    RO         1629    Veneer$$Code        anon$$obj.o
    0x1fff3170   0x1fff3170   0x0000000c   Ven    RO         1630    Veneer$$Code        anon$$obj.o
    0x1fff317c   0x1fff317c   0x0000000c   Ven    RO         1631    Veneer$$Code        anon$$obj.o
    0x1fff3188   0x1fff3188   0x0000000c   Ven    RO         1632    Veneer$$Code        anon$$obj.o
    0x1fff3194   0x1fff3194   0x0000000c   Ven    RO         1633    Veneer$$Code        anon$$obj.o
    0x1fff31a0   0x1fff31a0   0x0000000c   Ven    RO         1634    Veneer$$Code        anon$$obj.o
    0x1fff31ac   0x1fff31ac   0x0000000c   Ven    RO         1635    Veneer$$Code        anon$$obj.o
    0x1fff31b8   0x1fff31b8   0x0000000c   Ven    RO         1636    Veneer$$Code        anon$$obj.o
    0x1fff31c4   0x1fff31c4   0x0000000c   Ven    RO         1637    Veneer$$Code        anon$$obj.o
    0x1fff31d0   0x1fff31d0   0x0000000c   Ven    RO         1638    Veneer$$Code        anon$$obj.o
    0x1fff31dc   0x1fff31dc   0x0000000c   Ven    RO         1639    Veneer$$Code        anon$$obj.o
    0x1fff31e8   0x1fff31e8   0x0000000c   Ven    RO         1640    Veneer$$Code        anon$$obj.o
    0x1fff31f4   0x1fff31f4   0x0000000c   Ven    RO         1641    Veneer$$Code        anon$$obj.o
    0x1fff3200   0x1fff3200   0x0000000c   Ven    RO         1642    Veneer$$Code        anon$$obj.o
    0x1fff320c   0x1fff320c   0x0000000c   Ven    RO         1643    Veneer$$Code        anon$$obj.o
    0x1fff3218   0x1fff3218   0x0000000c   Ven    RO         1644    Veneer$$Code        anon$$obj.o
    0x1fff3224   0x1fff3224   0x0000000c   Ven    RO         1645    Veneer$$Code        anon$$obj.o
    0x1fff3230   0x1fff3230   0x0000000c   Ven    RO         1646    Veneer$$Code        anon$$obj.o
    0x1fff323c   0x1fff323c   0x0000000c   Ven    RO         1647    Veneer$$Code        anon$$obj.o
    0x1fff3248   0x1fff3248   0x0000000c   Ven    RO         1648    Veneer$$Code        anon$$obj.o
    0x1fff3254   0x1fff3254   0x0000000c   Ven    RO         1649    Veneer$$Code        anon$$obj.o
    0x1fff3260   0x1fff3260   0x0000000c   Ven    RO         1650    Veneer$$Code        anon$$obj.o
    0x1fff326c   0x1fff326c   0x0000000c   Ven    RO         1651    Veneer$$Code        anon$$obj.o
    0x1fff3278   0x1fff3278   0x0000000c   Ven    RO         1652    Veneer$$Code        anon$$obj.o
    0x1fff3284   0x1fff3284   0x0000000c   Ven    RO         1653    Veneer$$Code        anon$$obj.o
    0x1fff3290   0x1fff3290   0x0000000c   Ven    RO         1654    Veneer$$Code        anon$$obj.o
    0x1fff329c   0x1fff329c   0x0000000c   Ven    RO         1655    Veneer$$Code        anon$$obj.o
    0x1fff32a8   0x1fff32a8   0x0000000c   Ven    RO         1656    Veneer$$Code        anon$$obj.o
    0x1fff32b4   0x1fff32b4   0x0000000c   Ven    RO         1657    Veneer$$Code        anon$$obj.o
    0x1fff32c0   0x1fff32c0   0x0000000c   Ven    RO         1658    Veneer$$Code        anon$$obj.o
    0x1fff32cc   0x1fff32cc   0x0000000c   Ven    RO         1659    Veneer$$Code        anon$$obj.o
    0x1fff32d8   0x1fff32d8   0x0000000c   Ven    RO         1660    Veneer$$Code        anon$$obj.o
    0x1fff32e4   0x1fff32e4   0x0000000c   Ven    RO         1661    Veneer$$Code        anon$$obj.o
    0x1fff32f0   0x1fff32f0   0x0000000c   Ven    RO         1662    Veneer$$Code        anon$$obj.o
    0x1fff32fc   0x1fff32fc   0x0000027c   Code   RO           17    _section_sram_code_  uart.o
    0x1fff3578   0x1fff3578   0x0000028c   Code   RO           19    _section_sram_code_  uart.o
    0x1fff3804   0x1fff3804   0x00000090   Code   RO          171    _section_sram_code_  watchdog.o
    0x1fff3894   0x1fff3894   0x00000050   Code   RO          186    _section_sram_code_  pwrmgr.o
    0x1fff38e4   0x1fff38e4   0x000000a8   Code   RO         1331    _section_sram_code_  ble_host.lib(l2cap_util.o)
    0x1fff398c   0x1fff398c   0x0000001c   Code   RO          567    i.HCI_LE_ConnUpdateCmd  rf.lib(patch.o)
    0x1fff39a8   0x1fff39a8   0x000000f0   Code   RO          571    i.LL_ConnUpdate1    rf.lib(patch.o)
    0x1fff3a98   0x1fff3a98   0x0000001a   Code   RO          573    i.LL_ENC_AES128_Encrypt1  rf.lib(patch.o)
    0x1fff3ab2   COMPRESSED   0x00000002   PAD
    0x1fff3ab4   0x1fff3ab4   0x00000178   Code   RO          574    i.LL_ENC_Decrypt1   rf.lib(patch.o)
    0x1fff3c2c   0x1fff3c2c   0x00000160   Code   RO          575    i.LL_ENC_Encrypt1   rf.lib(patch.o)
    0x1fff3d8c   0x1fff3d8c   0x00000180   Code   RO          578    i.LL_IRQHandler1    rf.lib(patch.o)
    0x1fff3f0c   0x1fff3f0c   0x000001ec   Code   RO          583    i.LL_SetAdvControl1  rf.lib(patch.o)
    0x1fff40f8   0x1fff40f8   0x00000050   Code   RO          584    i.LL_SetAdvParam1   rf.lib(patch.o)
    0x1fff4148   0x1fff4148   0x00000030   Code   RO          585    i.LL_SetDataLengh1  rf.lib(patch.o)
    0x1fff4178   0x1fff4178   0x00000014   Code   RO          589    i.LL_set_default_conn_params1  rf.lib(patch.o)
    0x1fff418c   0x1fff418c   0x00000014   Code   RO          591    i.NVIC_EnableIRQ    rf.lib(patch.o)
    0x1fff41a0   0x1fff41a0   0x00000006   Code   RO          720    i.__psr             rf.lib(patch.o)
    0x1fff41a6   0x1fff41a6   0x0000000e   Code   RO         1551    i.__scatterload_copy  mc_p.l(handlers.o)
    0x1fff41b4   0x1fff41b4   0x00000002   Code   RO         1552    i.__scatterload_null  mc_p.l(handlers.o)
    0x1fff41b6   0x1fff41b6   0x0000000e   Code   RO         1553    i.__scatterload_zeroinit  mc_p.l(handlers.o)
    0x1fff41c4   0x1fff41c4   0x00000010   Code   RO          592    i.__wdt_init        rf.lib(patch.o)
    0x1fff41d4   0x1fff41d4   0x00000020   Code   RO          944    i._efuse_chip_version_check  rf.lib(phy_sec_ext.o)
    0x1fff41f4   0x1fff41f4   0x0000001c   Code   RO          945    i._rom_sec_boot_init  rf.lib(phy_sec_ext.o)
    0x1fff4210   0x1fff4210   0x00000154   Code   RO          593    i.check_16MXtal_by_rcTracking  rf.lib(patch.o)
    0x1fff4364   0x1fff4364   0x00000110   Code   RO          594    i.check_96MXtal_by_rcTracking  rf.lib(patch.o)
    0x1fff4474   0x1fff4474   0x00000090   Code   RO          596    i.config_RTC1       rf.lib(patch.o)
    0x1fff4504   0x1fff4504   0x00000018   Code   RO          946    i.efuse_init        rf.lib(phy_sec_ext.o)
    0x1fff451c   0x1fff451c   0x0000002c   Code   RO          598    i.enterSleepProcess1  rf.lib(patch.o)
    0x1fff4548   0x1fff4548   0x0000008c   Code   RO          947    i.finidv            rf.lib(phy_sec_ext.o)
    0x1fff45d4   0x1fff45d4   0x00000008   Code   RO          600    i.hal_rom_boot_init  rf.lib(patch.o)
    0x1fff45dc   0x1fff45dc   0x00000040   Code   RO          603    i.llCalcMaxScanTime1  rf.lib(patch.o)
    0x1fff461c   0x1fff461c   0x00000044   Code   RO          604    i.llConnTerminate1  rf.lib(patch.o)
    0x1fff4660   0x1fff4660   0x0000000c   Code   RO          608    i.llProcessTxData1  rf.lib(patch.o)
    0x1fff466c   0x1fff466c   0x00000050   Code   RO          609    i.llSecAdvAllow1    rf.lib(patch.o)
    0x1fff46bc   0x1fff46bc   0x0000002c   Code   RO          610    i.llSetupNextSlaveEvent1  rf.lib(patch.o)
    0x1fff46e8   0x1fff46e8   0x00000098   Code   RO          611    i.llSetupSecAdvEvt1  rf.lib(patch.o)
    0x1fff4780   0x1fff4780   0x000000bc   Code   RO          614    i.ll_adptive_adj_next_time1  rf.lib(patch.o)
    0x1fff483c   0x1fff483c   0x000001ac   Code   RO          615    i.ll_generateTxBuffer1  rf.lib(patch.o)
    0x1fff49e8   0x1fff49e8   0x0000019c   Code   RO          616    i.ll_hw_go1         rf.lib(patch.o)
    0x1fff4b84   0x1fff4b84   0x0000004c   Code   RO          620    i.ll_patch_slave    rf.lib(patch.o)
    0x1fff4bd0   0x1fff4bd0   0x00000018   Code   RO          621    i.ll_processBasicIRQ_SRX  rf.lib(patch.o)
    0x1fff4be8   0x1fff4be8   0x00000018   Code   RO          623    i.ll_processBasicIRQ_ScanTRX  rf.lib(patch.o)
    0x1fff4c00   0x1fff4c00   0x00000018   Code   RO          625    i.ll_processBasicIRQ_secondaryAdvTRX  rf.lib(patch.o)
    0x1fff4c18   0x1fff4c18   0x00000018   Code   RO          627    i.ll_processBasicIRQ_secondaryInitSRX  rf.lib(patch.o)
    0x1fff4c30   0x1fff4c30   0x00000018   Code   RO          629    i.ll_processBasicIRQ_secondaryScanSRX  rf.lib(patch.o)
    0x1fff4c48   0x1fff4c48   0x00000048   Code   RO          632    i.ll_scheduler2     rf.lib(patch.o)
    0x1fff4c90   0x1fff4c90   0x00000074   Code   RO          728    i.rc32k_calibration  rf.lib(rf_phy_driver.o)
    0x1fff4d04   0x1fff4d04   0x00000058   Code   RO          635    i.rc32k_cap_cal     rf.lib(patch.o)
    0x1fff4d5c   0x1fff4d5c   0x0000002c   Code   RO          636    i.read_LL_remainder_time1  rf.lib(patch.o)
    0x1fff4d88   0x1fff4d88   0x00000030   Code   RO          729    i.rf_calibrate1     rf.lib(rf_phy_driver.o)
    0x1fff4db8   0x1fff4db8   0x00000118   Code   RO          730    i.rf_phy_ana_cfg    rf.lib(rf_phy_driver.o)
    0x1fff4ed0   0x1fff4ed0   0x000001a4   Code   RO          731    i.rf_phy_bb_cfg     rf.lib(rf_phy_driver.o)
    0x1fff5074   0x1fff5074   0x000000a8   Code   RO          732    i.rf_phy_change_cfg0  rf.lib(rf_phy_driver.o)
    0x1fff511c   0x1fff511c   0x0000003c   Code   RO          748    i.rf_phy_ini        rf.lib(rf_phy_driver.o)
    0x1fff5158   0x1fff5158   0x00000074   Code   RO          749    i.rf_phy_set_txPower  rf.lib(rf_phy_driver.o)
    0x1fff51cc   0x1fff51cc   0x00000120   Code   RO          750    i.rf_rxDcoc_cfg     rf.lib(rf_phy_driver.o)
    0x1fff52ec   0x1fff52ec   0x0000004c   Code   RO          753    i.rf_tpCal_gen_cap_arrary  rf.lib(rf_phy_driver.o)
    0x1fff5338   0x1fff5338   0x0000011c   Code   RO          754    i.rf_tp_cal         rf.lib(rf_phy_driver.o)
    0x1fff5454   0x1fff5454   0x000001dc   Code   RO          638    i.wakeupProcess1    rf.lib(patch.o)
    0x1fff5630   0x1fff5630   0x00000140   Code   RO          639    i.wakeup_init1      rf.lib(patch.o)
    0x1fff5770   0x1fff5770   0x00000011   Data   RO          951    .conststring        rf.lib(phy_sec_ext.o)
    0x1fff5781   COMPRESSED   0x00000003   PAD
    0x1fff5784   0x1fff5784   0x0000000c   Data   RO           40    .rodata..L__const.irq_tx_empty_handler.evt  uart.o
    0x1fff5790   0x1fff5790   0x00000052   Data   RO          432    .rodata.str1.1      jump_table.o
    0x1fff57e2   COMPRESSED   0x00000002   PAD
    0x1fff57e4   0x1fff57e4   0x00000018   Data   RO          484    .rodata.tasksArr    osal_findmy.o
    0x1fff57fc   0x1fff57fc   0x00000001   Data   RO          485    .rodata.tasksCnt    osal_findmy.o
    0x1fff57fd   COMPRESSED   0x00000003   PAD
    0x1fff5800   0x1fff5800   0x00000050   Data   RO         1550    Region$$Table       anon$$obj.o
    0x1fff5850   COMPRESSED   0x00000020   Data   RW          643    .data               rf.lib(patch.o)
    0x1fff5870   COMPRESSED   0x00000018   Data   RW          805    .data               ble_host.lib(gap_centdevmgr.o)
    0x1fff5888   COMPRESSED   0x0000005a   Data   RW          846    .data               ble_host.lib(gap_configmgr.o)
    0x1fff58e2   COMPRESSED   0x00000002   PAD
    0x1fff58e4   COMPRESSED   0x0000001c   Data   RW          894    .data               ble_host.lib(gap_peridevmgr.o)
    0x1fff5900   COMPRESSED   0x0000000c   Data   RW          930    .data               ble_host.lib(gap_task.o)
    0x1fff590c   COMPRESSED   0x00000004   Data   RW          952    .data               rf.lib(phy_sec_ext.o)
    0x1fff5910   COMPRESSED   0x00000001   Data   RW          953    .data               rf.lib(phy_sec_ext.o)
    0x1fff5911   COMPRESSED   0x00000003   PAD
    0x1fff5914   COMPRESSED   0x00000008   Data   RW          990    .data               ble_host.lib(gap_devmgr.o)
    0x1fff591c   COMPRESSED   0x00000010   Data   RW         1022    .data               ble_host.lib(gap_linkmgr.o)
    0x1fff592c   COMPRESSED   0x00000008   Data   RW         1253    .data               ble_host.lib(att_util.o)
    0x1fff5934   COMPRESSED   0x00000001   Data   RW         1321    .data               ble_host.lib(l2cap_task.o)
    0x1fff5935   COMPRESSED   0x00000003   PAD
    0x1fff5938   COMPRESSED   0x00000008   Data   RW          223    .data..L_MergedGlobals  pwrmgr.o
    0x1fff5940   COMPRESSED   0x0000004b   Data   RW          464    .data..L_MergedGlobals  findmy.o
    0x1fff598b   COMPRESSED   0x00000001   PAD
    0x1fff598c   COMPRESSED   0x00000023   Data   RW          534    .data..L_MergedGlobals  multi.o
    0x1fff59af   COMPRESSED   0x00000001   PAD
    0x1fff59b0   COMPRESSED   0x00000004   Data   RW          557    .data.SystemCoreClock  system_armcm0.o
    0x1fff59b4   COMPRESSED   0x00000001   Data   RW          177    .data.g_wdt_cycle   watchdog.o
    0x1fff59b5   COMPRESSED   0x00000003   PAD
    0x1fff59b8   COMPRESSED   0x0000000c   Data   RW          344    .data.phy_flash     flash.o
    0x1fff59c4   COMPRESSED   0x00000006   Data   RW          290    .data.pwm_gpio_map  pwm.o
    0x1fff59ca   COMPRESSED   0x00000006   PAD
    0x1fff59d0   COMPRESSED   0x00000008   Data   RW          345    .data.s_xflashCtx   flash.o
    0x1fff59d8   COMPRESSED   0x00000001   Data   RW          221    _section_standby_var_  pwrmgr.o
    0x1fff59d9   COMPRESSED   0x00000007   PAD
    0x1fff59e0        -       0x00000020   Zero   RW          640    .bss                rf.lib(patch.o)
    0x1fff5a00        -       0x0000001c   Zero   RW          845    .bss                ble_host.lib(gap_configmgr.o)
    0x1fff5a1c        -       0x00000010   Zero   RW          949    .bss                rf.lib(phy_sec_ext.o)
    0x1fff5a2c        -       0x0000003c   Zero   RW         1086    .bss                ble_host.lib(linkdb.o)
    0x1fff5a68        -       0x0000002e   Zero   RW         1320    .bss                ble_host.lib(l2cap_task.o)
    0x1fff5a96   COMPRESSED   0x00000002   PAD
    0x1fff5a98        -       0x000000a0   Zero   RW         1365    .bss                ble_host.lib(l2cap_util.o)
    0x1fff5b38        -       0x00000046   Zero   RW          291    .bss..L_MergedGlobals  pwm.o
    0x1fff5b7e   COMPRESSED   0x00000002   PAD
    0x1fff5b80        -       0x0000001c   Zero   RW          410    .bss..L_MergedGlobals  fs.o
    0x1fff5b9c        -       0x0000000c   Zero   RW          224    .bss..L_MergedGlobals.1  pwrmgr.o
    0x1fff5ba8        -       0x00000012   Zero   RW          465    .bss..L_MergedGlobals.2  findmy.o
    0x1fff5bba   COMPRESSED   0x00000002   PAD
    0x1fff5bbc        -       0x00000045   Zero   RW          535    .bss..L_MergedGlobals.2  multi.o
    0x1fff5c01        -       0x00000001   Zero   RW            4    .bss.g_clk32K_config  main.o
    0x1fff5c02   COMPRESSED   0x00000002   PAD
    0x1fff5c04        -       0x00001000   Zero   RW            7    .bss.g_largeHeap    main.o
    0x1fff6c04        -       0x000001e0   Zero   RW            5    .bss.g_pConnectionBuffer  main.o
    0x1fff6de4        -       0x000001bc   Zero   RW          460    .bss.g_perStatsByChanTest  findmy.o
    0x1fff6fa0        -       0x00000014   Zero   RW          255    .bss.key_state      key.o
    0x1fff6fb4        -       0x00000078   Zero   RW          220    .bss.mCtx           pwrmgr.o
    0x1fff702c        -       0x0000012c   Zero   RW          132    .bss.m_gpioCtx      gpio.o
    0x1fff7158        -       0x00000040   Zero   RW           39    .bss.m_uartCtx      uart.o
    0x1fff7198        -       0x00000284   Zero   RW            6    .bss.pConnContext   main.o
    0x1fff741c        -       0x00000004   Zero   RW          160    .bss.s_ap_callback  timer.o
    0x1fff7420        -       0x00000004   Zero   RW          486    .bss.tasksEvents    osal_findmy.o
    0x1fff7424        -       0x00000004   Zero   RW          433    .bss.trap_c_callback  jump_table.o
    0x1fff7428        -       0x00000400   Zero   RW          543    STACK               startup_armcm0.o



  Load Region LR_ROM_JT_GC (Base: 0x1fff0000, Size: 0x00000800, Max: 0x00000800, ABSOLUTE, COMPRESSED[0x0000040c])

    Execution Region JUMP_TABLE (Exec base: 0x1fff0000, Load base: 0x1fff0000, Size: 0x00000400, Max: 0x00000400, ABSOLUTE)

    Exec Addr    Load Addr    Size         Type   Attr      Idx    E Section Name        Object

    0x1fff0000   0x1fff0000   0x00000400   Data   RO          434    jump_table_mem_area  jump_table.o


    Execution Region GOLBAL_CONFIG (Exec base: 0x1fff0400, Load base: 0x1fff0400, Size: 0x00000400, Max: 0x00000400, ABSOLUTE, COMPRESSED[0x0000000c])

    Exec Addr    Load Addr    Size         Type   Attr      Idx    E Section Name        Object

    0x1fff0400   COMPRESSED   0x00000400   Data   RW          435    global_config_area  jump_table.o



  Load Region LR_ROM_XIP (Base: 0x11020000, Size: 0x000032b4, Max: 0x00020000, ABSOLUTE)

    Execution Region ER_ROM_XIP (Exec base: 0x11020000, Load base: 0x11020000, Size: 0x000032b4, Max: 0x00020000, ABSOLUTE)

    Exec Addr    Load Addr    Size         Type   Attr      Idx    E Section Name        Object

    0x11020000   0x11020000   0x0000014c   Code   RO          448    .text.FindMy_Init   findmy.o
    0x1102014c   0x1102014c   0x00000188   Code   RO          452    .text.FindMy_ProcessEvent  findmy.o
    0x110202d4   0x110202d4   0x0000000c   Code   RO          526    .text.GAPMultiRole_CancelDiscovery  multi.o
    0x110202e0   0x110202e0   0x00000028   Code   RO          528    .text.GAPMultiRole_Init  multi.o
    0x11020308   0x11020308   0x000000c0   Code   RO          530    .text.GAPMultiRole_ProcessEvent  multi.o
    0x110203c8   0x110203c8   0x00000048   Code   RO          520    .text.GAPMultiRole_SetParameter  multi.o
    0x11020410   0x11020410   0x00000020   Code   RO          518    .text.GAPMultiRole_StartDevice  multi.o
    0x11020430   0x11020430   0x0000001c   Code   RO          524    .text.GAPMultiRole_StartDiscovery  multi.o
    0x1102044c   0x1102044c   0x0000019c   Code   RO          494    .text.GAPRole_SetParameter  multi.o
    0x110205e8   0x110205e8   0x00000034   Code   RO          419    .text.GAP_DeviceInit  gap.o
    0x1102061c   0x1102061c   0x0000003c   Code   RO          456    .text.findMy_broadcasterEventCB  findmy.o
    0x11020658   0x11020658   0x00000040   Code   RO          450    .text.findMy_keyPressEvt  findmy.o
    0x11020698   0x11020698   0x00000038   Code   RO          458    .text.findMy_observerEventCB  findmy.o
    0x110206d0   0x110206d0   0x000000c8   Code   RO          532    .text.gapRole_ProcessGAPMsg  multi.o
    0x11020798   0x11020798   0x000000ac   Code   RO          111    .text.hal_GPIO_IRQHandler  gpio.o
    0x11020844   0x11020844   0x0000001c   Code   RO           91    .text.hal_gpio_fmux  gpio.o
    0x11020860   0x11020860   0x00000038   Code   RO           93    .text.hal_gpio_fmux_set  gpio.o
    0x11020898   0x11020898   0x00000058   Code   RO          119    .text.hal_gpio_init  gpio.o
    0x110208f0   0x110208f0   0x00000038   Code   RO          107    .text.hal_gpio_pull_set  gpio.o
    0x11020928   0x11020928   0x00000018   Code   RO           89    .text.hal_gpio_read  gpio.o
    0x11020940   0x11020940   0x00000130   Code   RO          121    .text.hal_gpio_sleep_handler  gpio.o
    0x11020a70   0x11020a70   0x00000198   Code   RO          123    .text.hal_gpio_wakeup_handler  gpio.o
    0x11020c08   0x11020c08   0x000000e0   Code   RO          113    .text.hal_gpioin_enable  gpio.o
    0x11020ce8   0x11020ce8   0x00000118   Code   RO          117    .text.hal_gpioin_register  gpio.o
    0x11020e00   0x11020e00   0x0000014c   Code   RO          282    .text.hal_pwm_ch_start  pwm.o
    0x11020f4c   0x11020f4c   0x00000080   Code   RO          284    .text.hal_pwm_ch_stop  pwm.o
    0x11020fcc   0x11020fcc   0x00000220   Code   RO          278    .text.hal_pwm_module_init  pwm.o
    0x110211ec   0x110211ec   0x0000000c   Ven    RO         1663    Veneer$$Code        anon$$obj.o
    0x110211f8   0x110211f8   0x0000000c   Ven    RO         1664    Veneer$$Code        anon$$obj.o
    0x11021204   0x11021204   0x0000000c   Ven    RO         1665    Veneer$$Code        anon$$obj.o
    0x11021210   0x11021210   0x0000000c   Ven    RO         1666    Veneer$$Code        anon$$obj.o
    0x1102121c   0x1102121c   0x0000000c   Ven    RO         1667    Veneer$$Code        anon$$obj.o
    0x11021228   0x11021228   0x0000000c   Ven    RO         1668    Veneer$$Code        anon$$obj.o
    0x11021234   0x11021234   0x0000000c   Ven    RO         1669    Veneer$$Code        anon$$obj.o
    0x11021240   0x11021240   0x0000000c   Ven    RO         1670    Veneer$$Code        anon$$obj.o
    0x1102124c   0x1102124c   0x0000000c   Ven    RO         1671    Veneer$$Code        anon$$obj.o
    0x11021258   0x11021258   0x0000000c   Ven    RO         1672    Veneer$$Code        anon$$obj.o
    0x11021264   0x11021264   0x0000000c   Ven    RO         1673    Veneer$$Code        anon$$obj.o
    0x11021270   0x11021270   0x0000000c   Ven    RO         1674    Veneer$$Code        anon$$obj.o
    0x1102127c   0x1102127c   0x0000000c   Ven    RO         1675    Veneer$$Code        anon$$obj.o
    0x11021288   0x11021288   0x0000000c   Ven    RO         1676    Veneer$$Code        anon$$obj.o
    0x11021294   0x11021294   0x0000000c   Ven    RO         1677    Veneer$$Code        anon$$obj.o
    0x110212a0   0x110212a0   0x0000000c   Ven    RO         1678    Veneer$$Code        anon$$obj.o
    0x110212ac   0x110212ac   0x0000000c   Ven    RO         1679    Veneer$$Code        anon$$obj.o
    0x110212b8   0x110212b8   0x0000000c   Ven    RO         1680    Veneer$$Code        anon$$obj.o
    0x110212c4   0x110212c4   0x0000000c   Ven    RO         1681    Veneer$$Code        anon$$obj.o
    0x110212d0   0x110212d0   0x0000000c   Ven    RO         1682    Veneer$$Code        anon$$obj.o
    0x110212dc   0x110212dc   0x0000000c   Ven    RO         1683    Veneer$$Code        anon$$obj.o
    0x110212e8   0x110212e8   0x0000000c   Ven    RO         1684    Veneer$$Code        anon$$obj.o
    0x110212f4   0x110212f4   0x0000000c   Ven    RO         1685    Veneer$$Code        anon$$obj.o
    0x11021300   0x11021300   0x0000000c   Ven    RO         1686    Veneer$$Code        anon$$obj.o
    0x1102130c   0x1102130c   0x0000000c   Ven    RO         1687    Veneer$$Code        anon$$obj.o
    0x11021318   0x11021318   0x0000000c   Ven    RO         1688    Veneer$$Code        anon$$obj.o
    0x11021324   0x11021324   0x0000000c   Ven    RO         1689    Veneer$$Code        anon$$obj.o
    0x11021330   0x11021330   0x0000000c   Ven    RO         1690    Veneer$$Code        anon$$obj.o
    0x1102133c   0x1102133c   0x0000000c   Ven    RO         1691    Veneer$$Code        anon$$obj.o
    0x11021348   0x11021348   0x0000000c   Ven    RO         1692    Veneer$$Code        anon$$obj.o
    0x11021354   0x11021354   0x0000000c   Ven    RO         1693    Veneer$$Code        anon$$obj.o
    0x11021360   0x11021360   0x0000000c   Ven    RO         1694    Veneer$$Code        anon$$obj.o
    0x1102136c   0x1102136c   0x0000000c   Ven    RO         1695    Veneer$$Code        anon$$obj.o
    0x11021378   0x11021378   0x0000000c   Ven    RO         1696    Veneer$$Code        anon$$obj.o
    0x11021384   0x11021384   0x0000000c   Ven    RO         1697    Veneer$$Code        anon$$obj.o
    0x11021390   0x11021390   0x0000000c   Ven    RO         1698    Veneer$$Code        anon$$obj.o
    0x1102139c   0x1102139c   0x0000000c   Ven    RO         1699    Veneer$$Code        anon$$obj.o
    0x110213a8   0x110213a8   0x0000000c   Ven    RO         1700    Veneer$$Code        anon$$obj.o
    0x110213b4   0x110213b4   0x0000000c   Ven    RO         1701    Veneer$$Code        anon$$obj.o
    0x110213c0   0x110213c0   0x0000000c   Ven    RO         1702    Veneer$$Code        anon$$obj.o
    0x110213cc   0x110213cc   0x0000000c   Ven    RO         1703    Veneer$$Code        anon$$obj.o
    0x110213d8   0x110213d8   0x0000000c   Ven    RO         1704    Veneer$$Code        anon$$obj.o
    0x110213e4   0x110213e4   0x0000000c   Ven    RO         1705    Veneer$$Code        anon$$obj.o
    0x110213f0   0x110213f0   0x0000000c   Ven    RO         1706    Veneer$$Code        anon$$obj.o
    0x110213fc   0x110213fc   0x0000000c   Ven    RO         1707    Veneer$$Code        anon$$obj.o
    0x11021408   0x11021408   0x0000000c   Ven    RO         1708    Veneer$$Code        anon$$obj.o
    0x11021414   0x11021414   0x0000000c   Ven    RO         1709    Veneer$$Code        anon$$obj.o
    0x11021420   0x11021420   0x0000000c   Ven    RO         1710    Veneer$$Code        anon$$obj.o
    0x1102142c   0x1102142c   0x0000000c   Ven    RO         1711    Veneer$$Code        anon$$obj.o
    0x11021438   0x11021438   0x0000000c   Ven    RO         1712    Veneer$$Code        anon$$obj.o
    0x11021444   0x11021444   0x0000000c   Ven    RO         1713    Veneer$$Code        anon$$obj.o
    0x11021450   0x11021450   0x0000000c   Ven    RO         1714    Veneer$$Code        anon$$obj.o
    0x1102145c   0x1102145c   0x0000000c   Ven    RO         1715    Veneer$$Code        anon$$obj.o
    0x11021468   0x11021468   0x0000000c   Ven    RO         1716    Veneer$$Code        anon$$obj.o
    0x11021474   0x11021474   0x000003f8   Code   RO          566    _section_xip_code_  rf.lib(patch.o)
    0x1102186c   0x1102186c   0x0000000c   Code   RO         1220    i.ATT_GetCurrentMTUSize  ble_host.lib(att_util.o)
    0x11021878   0x11021878   0x00000018   Code   RO         1250    i.ATT_UpdateMtuSize  ble_host.lib(att_util.o)
    0x11021890   0x11021890   0x0000003c   Code   RO          791    i.GAP_CentDevMgrInit  ble_host.lib(gap_centdevmgr.o)
    0x110218cc   0x110218cc   0x00000038   Code   RO          792    i.GAP_DeviceDiscoveryCancel  ble_host.lib(gap_centdevmgr.o)
    0x11021904   0x11021904   0x0000009c   Code   RO          793    i.GAP_DeviceDiscoveryRequest  ble_host.lib(gap_centdevmgr.o)
    0x110219a0   0x110219a0   0x00000054   Code   RO          871    i.GAP_EndDiscoverable  ble_host.lib(gap_peridevmgr.o)
    0x110219f4   0x110219f4   0x00000018   Code   RO          826    i.GAP_GetParamValue  ble_host.lib(gap_configmgr.o)
    0x11021a0c   0x11021a0c   0x00000020   Code   RO          922    i.GAP_Init          ble_host.lib(gap_task.o)
    0x11021a2c   0x11021a2c   0x000000c0   Code   RO          873    i.GAP_MakeDiscoverable  ble_host.lib(gap_peridevmgr.o)
    0x11021aec   0x11021aec   0x00000008   Code   RO          923    i.GAP_NumActiveConnections  ble_host.lib(gap_task.o)
    0x11021af4   0x11021af4   0x00000038   Code   RO          827    i.GAP_ParamsInit    ble_host.lib(gap_configmgr.o)
    0x11021b2c   0x11021b2c   0x00000048   Code   RO          874    i.GAP_PeriDevMgrInit  ble_host.lib(gap_peridevmgr.o)
    0x11021b74   0x11021b74   0x000000e0   Code   RO          924    i.GAP_ProcessEvent  ble_host.lib(gap_task.o)
    0x11021c54   0x11021c54   0x0000000c   Code   RO          925    i.GAP_RegisterForHCIMsgs  ble_host.lib(gap_task.o)
    0x11021c60   0x11021c60   0x00000020   Code   RO          829    i.GAP_SetParamValue  ble_host.lib(gap_configmgr.o)
    0x11021c80   0x11021c80   0x00000074   Code   RO          878    i.GAP_UpdateAdvertisingData  ble_host.lib(gap_peridevmgr.o)
    0x11021cf4   0x11021cf4   0x00000042   Code   RO         1332    i.L2CAP_BuildCmdReject  ble_host.lib(l2cap_util.o)
    0x11021d36   0x11021d36   0x0000000e   Code   RO         1334    i.L2CAP_BuildParamUpdateRsp  ble_host.lib(l2cap_util.o)
    0x11021d44   0x11021d44   0x00000018   Code   RO         1049    i.L2CAP_CmdReject   ble_host.lib(l2cap_if.o)
    0x11021d5c   0x11021d5c   0x00000018   Code   RO         1051    i.L2CAP_ConnParamUpdateRsp  ble_host.lib(l2cap_if.o)
    0x11021d74   0x11021d74   0x00000008   Code   RO         1336    i.L2CAP_Fragment_bm_alloc  ble_host.lib(l2cap_util.o)
    0x11021d7c   0x11021d7c   0x00000024   Code   RO         1339    i.L2CAP_ReassemblePkt_Reset  ble_host.lib(l2cap_util.o)
    0x11021da0   0x11021da0   0x0000002c   Code   RO         1055    i.L2CAP_RegisterApp  ble_host.lib(l2cap_if.o)
    0x11021dcc   0x11021dcc   0x00000044   Code   RO         1340    i.L2CAP_SegmentPkt_Reset  ble_host.lib(l2cap_util.o)
    0x11021e10   0x11021e10   0x00000018   Code   RO         1341    i.L2CAP_bm_alloc    ble_host.lib(l2cap_util.o)
    0x11021e28   0x11021e28   0x00000044   Code   RO         1103    i.SM_CalcRandomAddr  ble_host.lib(sm_mgr.o)
    0x11021e6c   0x11021e6c   0x0000001a   Code   RO         1007    i.disconnectNext    ble_host.lib(gap_linkmgr.o)
    0x11021e86   0x11021e86   0x00000032   Code   RO          830    i.gapAddAddrAdj     ble_host.lib(gap_configmgr.o)
    0x11021eb8   0x11021eb8   0x00000054   Code   RO          880    i.gapAllocAdvRecs   ble_host.lib(gap_peridevmgr.o)
    0x11021f0c   0x11021f0c   0x00000048   Code   RO          794    i.gapAllocScanRecs  ble_host.lib(gap_centdevmgr.o)
    0x11021f54   0x11021f54   0x0000003c   Code   RO          969    i.gapCancelLinkReq  ble_host.lib(gap_centlinkmgr.o)
    0x11021f90   0x11021f90   0x0000002c   Code   RO          795    i.gapCentProcessHCICmdEvt  ble_host.lib(gap_centdevmgr.o)
    0x11021fbc   0x11021fbc   0x0000001e   Code   RO          831    i.gapDetermineAddrType  ble_host.lib(gap_configmgr.o)
    0x11021fda   0x11021fda   0x00000048   Code   RO          986    i.gapFindADType     ble_host.lib(gap_devmgr.o)
    0x11022022   0x11022022   0x00000002   PAD
    0x11022024   0x11022024   0x0000004c   Code   RO          796    i.gapFindScanRec    ble_host.lib(gap_centdevmgr.o)
    0x11022070   0x11022070   0x00000018   Code   RO          885    i.gapFreeAdvertState  ble_host.lib(gap_peridevmgr.o)
    0x11022088   0x11022088   0x00000040   Code   RO         1008    i.gapFreeAuthLink   ble_host.lib(gap_linkmgr.o)
    0x110220c8   0x110220c8   0x00000018   Code   RO         1009    i.gapFreeEstLink    ble_host.lib(gap_linkmgr.o)
    0x110220e0   0x110220e0   0x00000084   Code   RO          797    i.gapFreeScanRecs   ble_host.lib(gap_centdevmgr.o)
    0x11022164   0x11022164   0x0000000c   Code   RO          834    i.gapGetIRK         ble_host.lib(gap_configmgr.o)
    0x11022170   0x11022170   0x00000010   Code   RO          987    i.gapIsAdvertising  ble_host.lib(gap_devmgr.o)
    0x11022180   0x11022180   0x00000090   Code   RO          886    i.gapPeriProcessHCICmdCompleteEvt  ble_host.lib(gap_peridevmgr.o)
    0x11022210   0x11022210   0x0000013c   Code   RO          798    i.gapProcessAdvertDevInfo  ble_host.lib(gap_centdevmgr.o)
    0x1102234c   0x1102234c   0x00000080   Code   RO          887    i.gapProcessAdvertisingEvt  ble_host.lib(gap_peridevmgr.o)
    0x110223cc   0x110223cc   0x00000044   Code   RO          799    i.gapProcessConnEvt  ble_host.lib(gap_centdevmgr.o)
    0x11022410   0x11022410   0x00000014   Code   RO          970    i.gapProcessConnUpdateCmdStatus  ble_host.lib(gap_centlinkmgr.o)
    0x11022424   0x11022424   0x00000014   Code   RO         1012    i.gapProcessConnUpdateCompleteEvt  ble_host.lib(gap_linkmgr.o)
    0x11022438   0x11022438   0x000000e0   Code   RO         1013    i.gapProcessConnectionCompleteEvt  ble_host.lib(gap_linkmgr.o)
    0x11022518   0x11022518   0x00000034   Code   RO          971    i.gapProcessCreateLLConnCmdStatus  ble_host.lib(gap_centlinkmgr.o)
    0x1102254c   0x1102254c   0x00000070   Code   RO         1014    i.gapProcessDisconnectCompleteEvt  ble_host.lib(gap_linkmgr.o)
    0x110225bc   0x110225bc   0x000000c0   Code   RO          926    i.gapProcessHCICmdCompleteEvt  ble_host.lib(gap_task.o)
    0x1102267c   0x1102267c   0x0000005e   Code   RO          972    i.gapProcessL2CAPSignalEvt  ble_host.lib(gap_centlinkmgr.o)
    0x110226da   0x110226da   0x00000002   PAD
    0x110226dc   0x110226dc   0x0000002c   Code   RO          838    i.gapProcessNewAddr  ble_host.lib(gap_configmgr.o)
    0x11022708   0x11022708   0x000000d4   Code   RO          927    i.gapProcessOSALMsg  ble_host.lib(gap_task.o)
    0x110227dc   0x110227dc   0x0000006c   Code   RO          839    i.gapProcessRandomAddrComplete  ble_host.lib(gap_configmgr.o)
    0x11022848   0x11022848   0x00000060   Code   RO          800    i.gapProcessScanningEvt  ble_host.lib(gap_centdevmgr.o)
    0x110228a8   0x110228a8   0x00000044   Code   RO          840    i.gapReadBD_ADDRStatus  ble_host.lib(gap_configmgr.o)
    0x110228ec   0x110228ec   0x0000003c   Code   RO          841    i.gapReadBufSizeCmdStatus  ble_host.lib(gap_configmgr.o)
    0x11022928   0x11022928   0x0000000c   Code   RO          928    i.gapRegisterCentral  ble_host.lib(gap_task.o)
    0x11022934   0x11022934   0x0000000c   Code   RO          929    i.gapRegisterPeripheral  ble_host.lib(gap_task.o)
    0x11022940   0x11022940   0x000000d0   Code   RO          801    i.gapSendDevDiscEvent  ble_host.lib(gap_centdevmgr.o)
    0x11022a10   0x11022a10   0x00000068   Code   RO          802    i.gapSendDeviceInfoEvent  ble_host.lib(gap_centdevmgr.o)
    0x11022a78   0x11022a78   0x00000048   Code   RO          842    i.gapSendDeviceInitDoneEvent  ble_host.lib(gap_configmgr.o)
    0x11022ac0   0x11022ac0   0x00000048   Code   RO         1017    i.gapSendLinkUpdateEvent  ble_host.lib(gap_linkmgr.o)
    0x11022b08   0x11022b08   0x0000003c   Code   RO          888    i.gapSendMakeDiscEvent  ble_host.lib(gap_peridevmgr.o)
    0x11022b44   0x11022b44   0x0000001c   Code   RO          803    i.gapSendScanEnable  ble_host.lib(gap_centdevmgr.o)
    0x11022b60   0x11022b60   0x00000088   Code   RO          889    i.gapSetAdvParams   ble_host.lib(gap_peridevmgr.o)
    0x11022be8   0x11022be8   0x0000002c   Code   RO          890    i.gapSetAdvParamsStatus  ble_host.lib(gap_peridevmgr.o)
    0x11022c14   0x11022c14   0x00000050   Code   RO          804    i.gapSetScanParamStatus  ble_host.lib(gap_centdevmgr.o)
    0x11022c64   0x11022c64   0x00000008   Code   RO          973    i.gapTerminateConnComplete  ble_host.lib(gap_centlinkmgr.o)
    0x11022c6c   0x11022c6c   0x00000012   Code   RO          989    i.gapValidADType    ble_host.lib(gap_devmgr.o)
    0x11022c7e   0x11022c7e   0x00000002   PAD
    0x11022c80   0x11022c80   0x00000030   Code   RO          891    i.gapWriteAdvDataStatus  ble_host.lib(gap_peridevmgr.o)
    0x11022cb0   0x11022cb0   0x000000b8   Code   RO          892    i.gapWriteAdvEnableStatus  ble_host.lib(gap_peridevmgr.o)
    0x11022d68   0x11022d68   0x0000002c   Code   RO          893    i.isLimitedDiscoverableMode  ble_host.lib(gap_peridevmgr.o)
    0x11022d94   0x11022d94   0x000000b0   Code   RO         1347    i.l2capEncapSendData  ble_host.lib(l2cap_util.o)
    0x11022e44   0x11022e44   0x00000104   Code   RO         1360    i.l2capPktToSegmentBuff  ble_host.lib(l2cap_util.o)
    0x11022f48   0x11022f48   0x00000060   Code   RO         1362    i.l2capSendCmd      ble_host.lib(l2cap_util.o)
    0x11022fa8   0x11022fa8   0x00000058   Code   RO         1074    i.linkDB_Add        ble_host.lib(linkdb.o)
    0x11023000   0x11023000   0x00000028   Code   RO         1076    i.linkDB_Find       ble_host.lib(linkdb.o)
    0x11023028   0x11023028   0x00000038   Code   RO         1077    i.linkDB_FindFirst  ble_host.lib(linkdb.o)
    0x11023060   0x11023060   0x0000003c   Code   RO         1078    i.linkDB_Init       ble_host.lib(linkdb.o)
    0x1102309c   0x1102309c   0x00000024   Code   RO         1079    i.linkDB_NumActive  ble_host.lib(linkdb.o)
    0x110230c0   0x110230c0   0x00000036   Code   RO         1082    i.linkDB_Remove     ble_host.lib(linkdb.o)
    0x110230f6   0x110230f6   0x00000002   PAD
    0x110230f8   0x110230f8   0x00000028   Code   RO         1085    i.reportStatusChange  ble_host.lib(linkdb.o)
    0x11023120   0x11023120   0x0000005a   Code   RO         1020    i.sendEstLinkEvent  ble_host.lib(gap_linkmgr.o)
    0x1102317a   0x1102317a   0x0000002a   Code   RO         1021    i.sendTerminateEvent  ble_host.lib(gap_linkmgr.o)
    0x110231a4   0x110231a4   0x00000010   Code   RO         1112    i.smEncrypt         ble_host.lib(sm_mgr.o)
    0x110231b4   0x110231b4   0x00000026   Code   RO         1114    i.smGenerateRandBuf  ble_host.lib(sm_mgr.o)
    0x110231da   0x110231da   0x00000044   Code   RO         1121    i.sm_ah             ble_host.lib(sm_mgr.o)
    0x1102321e   0x1102321e   0x00000017   Data   RO          129    .rodata.c_gpio_index  gpio.o
    0x11023235   0x11023235   0x00000045   Data   RO          130    .rodata.c_gpio_pull  gpio.o
    0x1102327a   0x1102327a   0x00000002   PAD
    0x1102327c   0x1102327c   0x00000008   Data   RO          461    .rodata.findMy_ObserverCBs  findmy.o
    0x11023284   0x11023284   0x0000002e   Data   RO          131    .rodata.retention_reg  gpio.o


==============================================================================

Image component sizes


      Code (inc. data)   RO Data    RW Data    ZI Data      Debug   Object Name

       284         32          0          0          0       6808   clock.o
       904        134          8         75        462       9153   findmy.o
        20          0          0          0          0        422   findmy_main.o
      1576        104          0         20          0      13701   flash.o
      1048         24          0          0         28      13602   fs.o
        52          4          0          0          0       1139   gap.o
      1640         96        138          0        300      20306   gpio.o
        76         28       1106       1024          4       1379   jump_table.o
       424         28          0          0         20       5306   key.o
       412         48          0          0       5221      11007   main.o
       988         64          0         35         69      12727   multi.o
        68          4         25          0          4       1009   osal_findmy.o
      1004         56          0          6         70       8931   pwm.o
      1340         56          0          9        132      13832   pwrmgr.o
        20         10          8          0       1024        436   startup_armcm0.o
        16          8          0          4          0        674   system_armcm0.o
        68         12          0          0          4       6234   timer.o
      1288         52         12          0         64      17662   uart.o
       312         56          0          1          0       3729   watchdog.o

    ----------------------------------------------------------------------
     13436       1448       1386       1188       7412     148057   Object Totals
      1896        632         80          0          0          0   (incl. Generated)
         0          0          9         14         10          0   (incl. Padding)

    ----------------------------------------------------------------------

      Code (inc. data)   RO Data    RW Data    ZI Data      Debug   Library Member Name

        36         10          0          8          0        120   att_util.o
      1496        100          0         24          0       1016   gap_centdevmgr.o
       234         16          0          0          0        348   gap_centlinkmgr.o
       556         70          0         90         28        728   gap_configmgr.o
       106          4          0          8          0        200   gap_devmgr.o
       674         36          0         16          0        668   gap_linkmgr.o
      1360        168          0         28          0       1012   gap_peridevmgr.o
       704         80          0         12          0        532   gap_task.o
        92         16          0          0          0        196   l2cap_if.o
         0          0          0          1         46          0   l2cap_task.o
       916         38          0          0        160        764   l2cap_util.o
       374         38          0          0         60        488   linkdb.o
       190          0          0          0          0        292   sm_mgr.o
        58          0          0          0          0          0   __dczerorl.o
         0          0          0          0          0          0   entry.o
         0          0          0          0          0          0   entry10a.o
         0          0          0          0          0          0   entry11a.o
         8          4          0          0          0          0   entry2.o
         4          0          0          0          0          0   entry5.o
         0          0          0          0          0          0   entry7b.o
         0          0          0          0          0          0   entry8b.o
         8          4          0          0          0          0   entry9a.o
        30          0          0          0          0          0   handlers.o
        36          8          0          0          0         68   init.o
        40          0          0          0          0         72   strstr.o
      6556        890          0         32         32       2888   patch.o
       224         36         17          5         16        276   phy_sec_ext.o
      1856        376          0          0          0        732   rf_phy_driver.o

    ----------------------------------------------------------------------
     15570       1894         20        232        344      10400   Library Totals
        12          0          3          8          2          0   (incl. Padding)

    ----------------------------------------------------------------------

      Code (inc. data)   RO Data    RW Data    ZI Data      Debug   Library Name

      6738        576          0        187        294       6364   ble_host.lib
       184         16          0          0          0        140   mc_p.l
      8636       1302         17         37         48       3896   rf.lib

    ----------------------------------------------------------------------
     15570       1894         20        232        344      10400   Library Totals

    ----------------------------------------------------------------------

==============================================================================


      Code (inc. data)   RO Data    RW Data    ZI Data      Debug   

     29006       3342       1406       1420       7756     152225   Grand Totals
     29006       3342       1406        220       7756     152225   ELF Image Totals (compressed)
     29006       3342       1406        220          0          0   ROM Totals

==============================================================================

    Total RO  Size (Code + RO Data)                30412 (  29.70kB)
    Total RW  Size (RW Data + ZI Data)              9176 (   8.96kB)
    Total ROM Size (Code + RO Data + RW Data)      30632 (  29.91kB)

==============================================================================

